;
; Definition file of tag.dll
; Automatic generated by gendef
; written by Kai Tietz 2008
;
LIBRARY "tag.dll"
EXPORTS
??0?$List@VByteVector@TagLib@@@TagLib@@QEAA@AEBV01@@Z
??0?$List@VByteVector@TagLib@@@TagLib@@QEAA@XZ
??0?$List@VString@TagLib@@@TagLib@@QEAA@AEBV01@@Z
??0?$List@VString@TagLib@@@TagLib@@QEAA@XZ
??0?$Map@VString@TagLib@@VStringList@2@@TagLib@@QEAA@AEBV01@@Z
??0?$Map@VString@TagLib@@VStringList@2@@TagLib@@QEAA@XZ
??0Atom@MP4@TagLib@@QEAA@AEBV012@@Z
??0Atom@MP4@TagLib@@QEAA@PEAVFile@2@@Z
??0Atoms@MP4@TagLib@@QEAA@AEBV012@@Z
??0Atoms@MP4@TagLib@@QEAA@PEAVFile@2@@Z
??0AttachedPictureFrame@ID3v2@TagLib@@AEAA@AEBVByteVector@2@PEAVHeader@Frame@12@@Z
??0AttachedPictureFrame@ID3v2@TagLib@@QEAA@AEBVByteVector@2@@Z
??0AttachedPictureFrame@ID3v2@TagLib@@QEAA@XZ
??0AttachedPictureFrameV22@ID3v2@TagLib@@AEAA@AEBVByteVector@2@PEAVHeader@Frame@12@@Z
??0Attribute@ASF@TagLib@@QEAA@AEBV012@@Z
??0Attribute@ASF@TagLib@@QEAA@AEBVByteVector@2@@Z
??0Attribute@ASF@TagLib@@QEAA@AEBVPicture@12@@Z
??0Attribute@ASF@TagLib@@QEAA@AEBVString@2@@Z
??0Attribute@ASF@TagLib@@QEAA@G@Z
??0Attribute@ASF@TagLib@@QEAA@I@Z
??0Attribute@ASF@TagLib@@QEAA@XZ
??0Attribute@ASF@TagLib@@QEAA@_K@Z
??0Attribute@ASF@TagLib@@QEAA@_N@Z
??0AudioProperties@TagLib@@IEAA@W4ReadStyle@01@@Z
??0ByteVector@TagLib@@QEAA@AEBV01@@Z
??0ByteVector@TagLib@@QEAA@AEBV01@II@Z
??0ByteVector@TagLib@@QEAA@D@Z
??0ByteVector@TagLib@@QEAA@ID@Z
??0ByteVector@TagLib@@QEAA@PEBD@Z
??0ByteVector@TagLib@@QEAA@PEBDI@Z
??0ByteVector@TagLib@@QEAA@XZ
??0ByteVectorList@TagLib@@QEAA@AEBV01@@Z
??0ByteVectorList@TagLib@@QEAA@XZ
??0ByteVectorStream@TagLib@@QEAA@AEBVByteVector@1@@Z
??0ChapterFrame@ID3v2@TagLib@@AEAA@PEBVHeader@12@AEBVByteVector@2@PEAV3Frame@12@@Z
??0ChapterFrame@ID3v2@TagLib@@QEAA@AEBVByteVector@2@IIIIAEBV?$List@PEAVFrame@ID3v2@TagLib@@@2@@Z
??0ChapterFrame@ID3v2@TagLib@@QEAA@PEBVHeader@12@AEBVByteVector@2@@Z
??0CommentsFrame@ID3v2@TagLib@@AEAA@AEBVByteVector@2@PEAVHeader@Frame@12@@Z
??0CommentsFrame@ID3v2@TagLib@@QEAA@AEBVByteVector@2@@Z
??0CommentsFrame@ID3v2@TagLib@@QEAA@W4Type@String@2@@Z
??0CoverArt@MP4@TagLib@@QEAA@AEBV012@@Z
??0CoverArt@MP4@TagLib@@QEAA@W4Format@012@AEBVByteVector@2@@Z
??0DebugListener@TagLib@@QEAA@XZ
??0EventTimingCodesFrame@ID3v2@TagLib@@AEAA@AEBVByteVector@2@PEAVHeader@Frame@12@@Z
??0EventTimingCodesFrame@ID3v2@TagLib@@QEAA@AEBVByteVector@2@@Z
??0EventTimingCodesFrame@ID3v2@TagLib@@QEAA@XZ
??0ExtendedHeader@ID3v2@TagLib@@QEAA@XZ
??0File@AIFF@RIFF@TagLib@@QEAA@PEAVIOStream@3@_NW4ReadStyle@AudioProperties@3@@Z
??0File@AIFF@RIFF@TagLib@@QEAA@VFileName@3@_NW4ReadStyle@AudioProperties@3@@Z
??0File@APE@TagLib@@QEAA@PEAVIOStream@2@_NW4ReadStyle@AudioProperties@2@@Z
??0File@APE@TagLib@@QEAA@VFileName@2@_NW4ReadStyle@AudioProperties@2@@Z
??0File@ASF@TagLib@@QEAA@PEAVIOStream@2@_NW4ReadStyle@AudioProperties@2@@Z
??0File@ASF@TagLib@@QEAA@VFileName@2@_NW4ReadStyle@AudioProperties@2@@Z
??0File@FLAC@Ogg@TagLib@@QEAA@PEAVIOStream@3@_NW4ReadStyle@AudioProperties@3@@Z
??0File@FLAC@Ogg@TagLib@@QEAA@VFileName@3@_NW4ReadStyle@AudioProperties@3@@Z
??0File@FLAC@TagLib@@QEAA@PEAVIOStream@2@PEAVFrameFactory@ID3v2@2@_NW4ReadStyle@AudioProperties@2@@Z
??0File@FLAC@TagLib@@QEAA@VFileName@2@PEAVFrameFactory@ID3v2@2@_NW4ReadStyle@AudioProperties@2@@Z
??0File@FLAC@TagLib@@QEAA@VFileName@2@_NW4ReadStyle@AudioProperties@2@@Z
??0File@IT@TagLib@@QEAA@PEAVIOStream@2@_NW4ReadStyle@AudioProperties@2@@Z
??0File@IT@TagLib@@QEAA@VFileName@2@_NW4ReadStyle@AudioProperties@2@@Z
??0File@MP4@TagLib@@QEAA@PEAVIOStream@2@_NW4ReadStyle@AudioProperties@2@@Z
??0File@MP4@TagLib@@QEAA@VFileName@2@_NW4ReadStyle@AudioProperties@2@@Z
??0File@MPC@TagLib@@QEAA@PEAVIOStream@2@_NW4ReadStyle@AudioProperties@2@@Z
??0File@MPC@TagLib@@QEAA@VFileName@2@_NW4ReadStyle@AudioProperties@2@@Z
??0File@MPEG@TagLib@@QEAA@PEAVIOStream@2@PEAVFrameFactory@ID3v2@2@_NW4ReadStyle@AudioProperties@2@@Z
??0File@MPEG@TagLib@@QEAA@VFileName@2@PEAVFrameFactory@ID3v2@2@_NW4ReadStyle@AudioProperties@2@@Z
??0File@MPEG@TagLib@@QEAA@VFileName@2@_NW4ReadStyle@AudioProperties@2@@Z
??0File@Mod@TagLib@@QEAA@PEAVIOStream@2@_NW4ReadStyle@AudioProperties@2@@Z
??0File@Mod@TagLib@@QEAA@VFileName@2@_NW4ReadStyle@AudioProperties@2@@Z
??0File@Ogg@TagLib@@IEAA@PEAVIOStream@2@@Z
??0File@Ogg@TagLib@@IEAA@VFileName@2@@Z
??0File@Opus@Ogg@TagLib@@QEAA@PEAVIOStream@3@_NW4ReadStyle@AudioProperties@3@@Z
??0File@Opus@Ogg@TagLib@@QEAA@VFileName@3@_NW4ReadStyle@AudioProperties@3@@Z
??0File@RIFF@TagLib@@IEAA@PEAVIOStream@2@W4Endianness@012@@Z
??0File@RIFF@TagLib@@IEAA@VFileName@2@W4Endianness@012@@Z
??0File@S3M@TagLib@@QEAA@PEAVIOStream@2@_NW4ReadStyle@AudioProperties@2@@Z
??0File@S3M@TagLib@@QEAA@VFileName@2@_NW4ReadStyle@AudioProperties@2@@Z
??0File@Speex@Ogg@TagLib@@QEAA@PEAVIOStream@3@_NW4ReadStyle@AudioProperties@3@@Z
??0File@Speex@Ogg@TagLib@@QEAA@VFileName@3@_NW4ReadStyle@AudioProperties@3@@Z
??0File@TagLib@@IEAA@PEAVIOStream@1@@Z
??0File@TagLib@@IEAA@VFileName@1@@Z
??0File@TrueAudio@TagLib@@QEAA@PEAVIOStream@2@PEAVFrameFactory@ID3v2@2@_NW4ReadStyle@AudioProperties@2@@Z
??0File@TrueAudio@TagLib@@QEAA@PEAVIOStream@2@_NW4ReadStyle@AudioProperties@2@@Z
??0File@TrueAudio@TagLib@@QEAA@VFileName@2@PEAVFrameFactory@ID3v2@2@_NW4ReadStyle@AudioProperties@2@@Z
??0File@TrueAudio@TagLib@@QEAA@VFileName@2@_NW4ReadStyle@AudioProperties@2@@Z
??0File@Vorbis@TagLib@@QEAA@PEAVIOStream@2@_NW4ReadStyle@AudioProperties@2@@Z
??0File@Vorbis@TagLib@@QEAA@VFileName@2@_NW4ReadStyle@AudioProperties@2@@Z
??0File@WAV@RIFF@TagLib@@QEAA@PEAVIOStream@3@_NW4ReadStyle@AudioProperties@3@@Z
??0File@WAV@RIFF@TagLib@@QEAA@VFileName@3@_NW4ReadStyle@AudioProperties@3@@Z
??0File@WavPack@TagLib@@QEAA@PEAVIOStream@2@_NW4ReadStyle@AudioProperties@2@@Z
??0File@WavPack@TagLib@@QEAA@VFileName@2@_NW4ReadStyle@AudioProperties@2@@Z
??0File@XM@TagLib@@QEAA@PEAVIOStream@2@_NW4ReadStyle@AudioProperties@2@@Z
??0File@XM@TagLib@@QEAA@VFileName@2@_NW4ReadStyle@AudioProperties@2@@Z
??0FileBase@Mod@TagLib@@IEAA@PEAVIOStream@2@@Z
??0FileBase@Mod@TagLib@@IEAA@VFileName@2@@Z
??0FileName@TagLib@@QEAA@AEBV01@@Z
??0FileName@TagLib@@QEAA@PEBD@Z
??0FileName@TagLib@@QEAA@PEB_W@Z
??0FileRef@TagLib@@QEAA@AEBV01@@Z
??0FileRef@TagLib@@QEAA@PEAVFile@1@@Z
??0FileRef@TagLib@@QEAA@PEAVIOStream@1@_NW4ReadStyle@AudioProperties@1@@Z
??0FileRef@TagLib@@QEAA@VFileName@1@_NW4ReadStyle@AudioProperties@1@@Z
??0FileRef@TagLib@@QEAA@XZ
??0FileStream@TagLib@@QEAA@H_N@Z
??0FileStream@TagLib@@QEAA@VFileName@1@_N@Z
??0FileTypeResolver@FileRef@TagLib@@QEAA@$$QEAV012@@Z
??0FileTypeResolver@FileRef@TagLib@@QEAA@AEBV012@@Z
??0FileTypeResolver@FileRef@TagLib@@QEAA@XZ
??0Footer@APE@TagLib@@QEAA@AEBVByteVector@2@@Z
??0Footer@APE@TagLib@@QEAA@XZ
??0Footer@ID3v2@TagLib@@QEAA@XZ
??0Frame@ID3v2@TagLib@@IEAA@AEBVByteVector@2@@Z
??0Frame@ID3v2@TagLib@@IEAA@PEAVHeader@012@@Z
??0FrameFactory@ID3v2@TagLib@@IEAA@XZ
??0GeneralEncapsulatedObjectFrame@ID3v2@TagLib@@AEAA@AEBVByteVector@2@PEAVHeader@Frame@12@@Z
??0GeneralEncapsulatedObjectFrame@ID3v2@TagLib@@QEAA@AEBVByteVector@2@@Z
??0GeneralEncapsulatedObjectFrame@ID3v2@TagLib@@QEAA@XZ
??0Header@Frame@ID3v2@TagLib@@QEAA@AEBVByteVector@3@I@Z
??0Header@Frame@ID3v2@TagLib@@QEAA@AEBVByteVector@3@_N@Z
??0Header@ID3v2@TagLib@@QEAA@AEBVByteVector@2@@Z
??0Header@ID3v2@TagLib@@QEAA@XZ
??0Header@MPEG@TagLib@@QEAA@AEBV012@@Z
??0Header@MPEG@TagLib@@QEAA@AEBVByteVector@2@@Z
??0Header@MPEG@TagLib@@QEAA@PEAVFile@2@J_N@Z
??0IOStream@TagLib@@QEAA@XZ
??0Item@APE@TagLib@@QEAA@AEBV012@@Z
??0Item@APE@TagLib@@QEAA@AEBVString@2@0@Z
??0Item@APE@TagLib@@QEAA@AEBVString@2@AEBVByteVector@2@_N@Z
??0Item@APE@TagLib@@QEAA@AEBVString@2@AEBVStringList@2@@Z
??0Item@APE@TagLib@@QEAA@XZ
??0Item@MP4@TagLib@@QEAA@AEBV012@@Z
??0Item@MP4@TagLib@@QEAA@AEBV?$List@VCoverArt@MP4@TagLib@@@2@@Z
??0Item@MP4@TagLib@@QEAA@AEBVByteVectorList@2@@Z
??0Item@MP4@TagLib@@QEAA@AEBVStringList@2@@Z
??0Item@MP4@TagLib@@QEAA@E@Z
??0Item@MP4@TagLib@@QEAA@H@Z
??0Item@MP4@TagLib@@QEAA@HH@Z
??0Item@MP4@TagLib@@QEAA@I@Z
??0Item@MP4@TagLib@@QEAA@XZ
??0Item@MP4@TagLib@@QEAA@_J@Z
??0Item@MP4@TagLib@@QEAA@_N@Z
??0Latin1StringHandler@ID3v2@TagLib@@QEAA@AEBV012@@Z
??0Latin1StringHandler@ID3v2@TagLib@@QEAA@XZ
??0MetadataBlock@FLAC@TagLib@@QEAA@XZ
??0OwnershipFrame@ID3v2@TagLib@@AEAA@AEBVByteVector@2@PEAVHeader@Frame@12@@Z
??0OwnershipFrame@ID3v2@TagLib@@QEAA@AEBVByteVector@2@@Z
??0OwnershipFrame@ID3v2@TagLib@@QEAA@W4Type@String@2@@Z
??0Page@Ogg@TagLib@@IEAA@AEBVByteVectorList@2@IH_N11@Z
??0Page@Ogg@TagLib@@QEAA@PEAVFile@12@J@Z
??0PageHeader@Ogg@TagLib@@QEAA@PEAVFile@12@J@Z
??0Picture@ASF@TagLib@@QEAA@AEBV012@@Z
??0Picture@ASF@TagLib@@QEAA@XZ
??0Picture@FLAC@TagLib@@QEAA@AEBVByteVector@2@@Z
??0Picture@FLAC@TagLib@@QEAA@XZ
??0PodcastFrame@ID3v2@TagLib@@AEAA@AEBVByteVector@2@PEAVHeader@Frame@12@@Z
??0PodcastFrame@ID3v2@TagLib@@QEAA@XZ
??0PopularimeterFrame@ID3v2@TagLib@@AEAA@AEBVByteVector@2@PEAVHeader@Frame@12@@Z
??0PopularimeterFrame@ID3v2@TagLib@@QEAA@AEBVByteVector@2@@Z
??0PopularimeterFrame@ID3v2@TagLib@@QEAA@XZ
??0PrivateFrame@ID3v2@TagLib@@AEAA@AEBVByteVector@2@PEAVHeader@Frame@12@@Z
??0PrivateFrame@ID3v2@TagLib@@QEAA@AEBVByteVector@2@@Z
??0PrivateFrame@ID3v2@TagLib@@QEAA@XZ
??0Properties@AIFF@RIFF@TagLib@@QEAA@AEBVByteVector@3@W4ReadStyle@AudioProperties@3@@Z
??0Properties@AIFF@RIFF@TagLib@@QEAA@PEAVFile@123@W4ReadStyle@AudioProperties@3@@Z
??0Properties@APE@TagLib@@QEAA@PEAVFile@12@JW4ReadStyle@AudioProperties@2@@Z
??0Properties@APE@TagLib@@QEAA@PEAVFile@12@W4ReadStyle@AudioProperties@2@@Z
??0Properties@ASF@TagLib@@QEAA@XZ
??0Properties@FLAC@TagLib@@QEAA@PEAVFile@12@W4ReadStyle@AudioProperties@2@@Z
??0Properties@FLAC@TagLib@@QEAA@VByteVector@2@JW4ReadStyle@AudioProperties@2@@Z
??0Properties@IT@TagLib@@QEAA@W4ReadStyle@AudioProperties@2@@Z
??0Properties@MP4@TagLib@@QEAA@PEAVFile@12@PEAVAtoms@12@W4ReadStyle@AudioProperties@2@@Z
??0Properties@MPC@TagLib@@QEAA@AEBVByteVector@2@JW4ReadStyle@AudioProperties@2@@Z
??0Properties@MPC@TagLib@@QEAA@PEAVFile@12@JW4ReadStyle@AudioProperties@2@@Z
??0Properties@MPEG@TagLib@@QEAA@PEAVFile@12@W4ReadStyle@AudioProperties@2@@Z
??0Properties@Mod@TagLib@@QEAA@W4ReadStyle@AudioProperties@2@@Z
??0Properties@Opus@Ogg@TagLib@@QEAA@PEAVFile@123@W4ReadStyle@AudioProperties@3@@Z
??0Properties@S3M@TagLib@@QEAA@W4ReadStyle@AudioProperties@2@@Z
??0Properties@Speex@Ogg@TagLib@@QEAA@PEAVFile@123@W4ReadStyle@AudioProperties@3@@Z
??0Properties@TrueAudio@TagLib@@QEAA@AEBVByteVector@2@JW4ReadStyle@AudioProperties@2@@Z
??0Properties@Vorbis@TagLib@@QEAA@PEAVFile@12@W4ReadStyle@AudioProperties@2@@Z
??0Properties@WAV@RIFF@TagLib@@QEAA@AEBVByteVector@3@IW4ReadStyle@AudioProperties@3@@Z
??0Properties@WAV@RIFF@TagLib@@QEAA@AEBVByteVector@3@W4ReadStyle@AudioProperties@3@@Z
??0Properties@WAV@RIFF@TagLib@@QEAA@PEAVFile@123@W4ReadStyle@AudioProperties@3@@Z
??0Properties@WavPack@TagLib@@QEAA@AEBVByteVector@2@JW4ReadStyle@AudioProperties@2@@Z
??0Properties@WavPack@TagLib@@QEAA@PEAVFile@12@JW4ReadStyle@AudioProperties@2@@Z
??0Properties@XM@TagLib@@QEAA@W4ReadStyle@AudioProperties@2@@Z
??0PropertyMap@TagLib@@QEAA@AEBV01@@Z
??0PropertyMap@TagLib@@QEAA@AEBV?$Map@VString@TagLib@@VStringList@2@@1@@Z
??0PropertyMap@TagLib@@QEAA@XZ
??0RefCounter@TagLib@@QEAA@AEBV01@@Z
??0RefCounter@TagLib@@QEAA@XZ
??0RelativeVolumeFrame@ID3v2@TagLib@@AEAA@AEBVByteVector@2@PEAVHeader@Frame@12@@Z
??0RelativeVolumeFrame@ID3v2@TagLib@@QEAA@AEBVByteVector@2@@Z
??0RelativeVolumeFrame@ID3v2@TagLib@@QEAA@XZ
??0StreamTypeResolver@FileRef@TagLib@@QEAA@$$QEAV012@@Z
??0StreamTypeResolver@FileRef@TagLib@@QEAA@AEBV012@@Z
??0StreamTypeResolver@FileRef@TagLib@@QEAA@XZ
??0String@TagLib@@QEAA@AEBV01@@Z
??0String@TagLib@@QEAA@AEBV?$basic_string@DU?$char_traits@D@std@@V?$allocator@D@2@@std@@W4Type@01@@Z
??0String@TagLib@@QEAA@AEBV?$basic_string@_WU?$char_traits@_W@std@@V?$allocator@_W@2@@std@@W4Type@01@@Z
??0String@TagLib@@QEAA@AEBVByteVector@1@W4Type@01@@Z
??0String@TagLib@@QEAA@DW4Type@01@@Z
??0String@TagLib@@QEAA@PEBDW4Type@01@@Z
??0String@TagLib@@QEAA@PEB_WW4Type@01@@Z
??0String@TagLib@@QEAA@XZ
??0String@TagLib@@QEAA@_WW4Type@01@@Z
??0StringHandler@ID3v1@TagLib@@QEAA@$$QEAV012@@Z
??0StringHandler@ID3v1@TagLib@@QEAA@AEBV012@@Z
??0StringHandler@ID3v1@TagLib@@QEAA@XZ
??0StringHandler@Info@RIFF@TagLib@@QEAA@AEBV0123@@Z
??0StringHandler@Info@RIFF@TagLib@@QEAA@XZ
??0StringList@TagLib@@QEAA@AEBV01@@Z
??0StringList@TagLib@@QEAA@AEBVByteVectorList@1@W4Type@String@1@@Z
??0StringList@TagLib@@QEAA@AEBVString@1@@Z
??0StringList@TagLib@@QEAA@XZ
??0SynchronizedLyricsFrame@ID3v2@TagLib@@AEAA@AEBVByteVector@2@PEAVHeader@Frame@12@@Z
??0SynchronizedLyricsFrame@ID3v2@TagLib@@QEAA@AEBVByteVector@2@@Z
??0SynchronizedLyricsFrame@ID3v2@TagLib@@QEAA@W4Type@String@2@@Z
??0TableOfContentsFrame@ID3v2@TagLib@@AEAA@PEBVHeader@12@AEBVByteVector@2@PEAV3Frame@12@@Z
??0TableOfContentsFrame@ID3v2@TagLib@@QEAA@AEBVByteVector@2@AEBVByteVectorList@2@AEBV?$List@PEAVFrame@ID3v2@TagLib@@@2@@Z
??0TableOfContentsFrame@ID3v2@TagLib@@QEAA@PEBVHeader@12@AEBVByteVector@2@@Z
??0Tag@APE@TagLib@@QEAA@PEAVFile@2@J@Z
??0Tag@APE@TagLib@@QEAA@XZ
??0Tag@ASF@TagLib@@QEAA@XZ
??0Tag@ID3v1@TagLib@@QEAA@PEAVFile@2@J@Z
??0Tag@ID3v1@TagLib@@QEAA@XZ
??0Tag@ID3v2@TagLib@@QEAA@PEAVFile@2@JPEBVFrameFactory@12@@Z
??0Tag@ID3v2@TagLib@@QEAA@XZ
??0Tag@Info@RIFF@TagLib@@QEAA@AEBVByteVector@3@@Z
??0Tag@Info@RIFF@TagLib@@QEAA@XZ
??0Tag@MP4@TagLib@@QEAA@PEAVFile@2@PEAVAtoms@12@@Z
??0Tag@MP4@TagLib@@QEAA@XZ
??0Tag@Mod@TagLib@@QEAA@XZ
??0Tag@TagLib@@IEAA@XZ
??0TextIdentificationFrame@ID3v2@TagLib@@IEAA@AEBVByteVector@2@PEAVHeader@Frame@12@@Z
??0TextIdentificationFrame@ID3v2@TagLib@@QEAA@AEBVByteVector@2@@Z
??0TextIdentificationFrame@ID3v2@TagLib@@QEAA@AEBVByteVector@2@W4Type@String@2@@Z
??0UniqueFileIdentifierFrame@ID3v2@TagLib@@AEAA@AEBVByteVector@2@PEAVHeader@Frame@12@@Z
??0UniqueFileIdentifierFrame@ID3v2@TagLib@@QEAA@AEBVByteVector@2@@Z
??0UniqueFileIdentifierFrame@ID3v2@TagLib@@QEAA@AEBVString@2@AEBVByteVector@2@@Z
??0UnknownFrame@ID3v2@TagLib@@AEAA@AEBVByteVector@2@PEAVHeader@Frame@12@@Z
??0UnknownFrame@ID3v2@TagLib@@QEAA@AEBVByteVector@2@@Z
??0UnknownMetadataBlock@FLAC@TagLib@@QEAA@HAEBVByteVector@2@@Z
??0UnsynchronizedLyricsFrame@ID3v2@TagLib@@AEAA@AEBVByteVector@2@PEAVHeader@Frame@12@@Z
??0UnsynchronizedLyricsFrame@ID3v2@TagLib@@QEAA@AEBVByteVector@2@@Z
??0UnsynchronizedLyricsFrame@ID3v2@TagLib@@QEAA@W4Type@String@2@@Z
??0UrlLinkFrame@ID3v2@TagLib@@IEAA@AEBVByteVector@2@PEAVHeader@Frame@12@@Z
??0UrlLinkFrame@ID3v2@TagLib@@QEAA@AEBVByteVector@2@@Z
??0UserTextIdentificationFrame@ID3v2@TagLib@@AEAA@AEBVByteVector@2@PEAVHeader@Frame@12@@Z
??0UserTextIdentificationFrame@ID3v2@TagLib@@QEAA@AEBVByteVector@2@@Z
??0UserTextIdentificationFrame@ID3v2@TagLib@@QEAA@AEBVString@2@AEBVStringList@2@W4Type@32@@Z
??0UserTextIdentificationFrame@ID3v2@TagLib@@QEAA@W4Type@String@2@@Z
??0UserUrlLinkFrame@ID3v2@TagLib@@IEAA@AEBVByteVector@2@PEAVHeader@Frame@12@@Z
??0UserUrlLinkFrame@ID3v2@TagLib@@QEAA@AEBVByteVector@2@@Z
??0UserUrlLinkFrame@ID3v2@TagLib@@QEAA@W4Type@String@2@@Z
??0XingHeader@MPEG@TagLib@@QEAA@AEBVByteVector@2@@Z
??0XiphComment@Ogg@TagLib@@QEAA@AEBVByteVector@2@@Z
??0XiphComment@Ogg@TagLib@@QEAA@XZ
??1?$List@VByteVector@TagLib@@@TagLib@@UEAA@XZ
??1?$List@VString@TagLib@@@TagLib@@UEAA@XZ
??1?$Map@VString@TagLib@@VStringList@2@@TagLib@@UEAA@XZ
??1Atom@MP4@TagLib@@QEAA@XZ
??1Atoms@MP4@TagLib@@QEAA@XZ
??1AttachedPictureFrame@ID3v2@TagLib@@UEAA@XZ
??1AttachedPictureFrameV22@ID3v2@TagLib@@UEAA@XZ
??1Attribute@ASF@TagLib@@UEAA@XZ
??1AudioProperties@TagLib@@UEAA@XZ
??1ByteVector@TagLib@@UEAA@XZ
??1ByteVectorList@TagLib@@UEAA@XZ
??1ByteVectorStream@TagLib@@UEAA@XZ
??1ChapterFrame@ID3v2@TagLib@@UEAA@XZ
??1CommentsFrame@ID3v2@TagLib@@UEAA@XZ
??1CoverArt@MP4@TagLib@@QEAA@XZ
??1DebugListener@TagLib@@UEAA@XZ
??1EventTimingCodesFrame@ID3v2@TagLib@@UEAA@XZ
??1ExtendedHeader@ID3v2@TagLib@@UEAA@XZ
??1File@AIFF@RIFF@TagLib@@UEAA@XZ
??1File@APE@TagLib@@UEAA@XZ
??1File@ASF@TagLib@@UEAA@XZ
??1File@FLAC@Ogg@TagLib@@UEAA@XZ
??1File@FLAC@TagLib@@UEAA@XZ
??1File@IT@TagLib@@UEAA@XZ
??1File@MP4@TagLib@@UEAA@XZ
??1File@MPC@TagLib@@UEAA@XZ
??1File@MPEG@TagLib@@UEAA@XZ
??1File@Mod@TagLib@@UEAA@XZ
??1File@Ogg@TagLib@@UEAA@XZ
??1File@Opus@Ogg@TagLib@@UEAA@XZ
??1File@RIFF@TagLib@@UEAA@XZ
??1File@S3M@TagLib@@UEAA@XZ
??1File@Speex@Ogg@TagLib@@UEAA@XZ
??1File@TagLib@@UEAA@XZ
??1File@TrueAudio@TagLib@@UEAA@XZ
??1File@Vorbis@TagLib@@UEAA@XZ
??1File@WAV@RIFF@TagLib@@UEAA@XZ
??1File@WavPack@TagLib@@UEAA@XZ
??1File@XM@TagLib@@UEAA@XZ
??1FileBase@Mod@TagLib@@UEAA@XZ
??1FileName@TagLib@@QEAA@XZ
??1FileRef@TagLib@@UEAA@XZ
??1FileStream@TagLib@@UEAA@XZ
??1Footer@APE@TagLib@@UEAA@XZ
??1Footer@ID3v2@TagLib@@UEAA@XZ
??1Frame@ID3v2@TagLib@@UEAA@XZ
??1FrameFactory@ID3v2@TagLib@@MEAA@XZ
??1GeneralEncapsulatedObjectFrame@ID3v2@TagLib@@UEAA@XZ
??1Header@Frame@ID3v2@TagLib@@UEAA@XZ
??1Header@ID3v2@TagLib@@UEAA@XZ
??1Header@MPEG@TagLib@@UEAA@XZ
??1IOStream@TagLib@@UEAA@XZ
??1Item@APE@TagLib@@UEAA@XZ
??1Item@MP4@TagLib@@QEAA@XZ
??1Latin1StringHandler@ID3v2@TagLib@@UEAA@XZ
??1MetadataBlock@FLAC@TagLib@@UEAA@XZ
??1OwnershipFrame@ID3v2@TagLib@@UEAA@XZ
??1Page@Ogg@TagLib@@UEAA@XZ
??1PageHeader@Ogg@TagLib@@UEAA@XZ
??1Picture@ASF@TagLib@@UEAA@XZ
??1Picture@FLAC@TagLib@@UEAA@XZ
??1PodcastFrame@ID3v2@TagLib@@UEAA@XZ
??1PopularimeterFrame@ID3v2@TagLib@@UEAA@XZ
??1PrivateFrame@ID3v2@TagLib@@UEAA@XZ
??1Properties@AIFF@RIFF@TagLib@@UEAA@XZ
??1Properties@APE@TagLib@@UEAA@XZ
??1Properties@ASF@TagLib@@UEAA@XZ
??1Properties@FLAC@TagLib@@UEAA@XZ
??1Properties@IT@TagLib@@UEAA@XZ
??1Properties@MP4@TagLib@@UEAA@XZ
??1Properties@MPC@TagLib@@UEAA@XZ
??1Properties@MPEG@TagLib@@UEAA@XZ
??1Properties@Mod@TagLib@@UEAA@XZ
??1Properties@Opus@Ogg@TagLib@@UEAA@XZ
??1Properties@S3M@TagLib@@UEAA@XZ
??1Properties@Speex@Ogg@TagLib@@UEAA@XZ
??1Properties@TrueAudio@TagLib@@UEAA@XZ
??1Properties@Vorbis@TagLib@@UEAA@XZ
??1Properties@WAV@RIFF@TagLib@@UEAA@XZ
??1Properties@WavPack@TagLib@@UEAA@XZ
??1Properties@XM@TagLib@@UEAA@XZ
??1PropertyMap@TagLib@@UEAA@XZ
??1RefCounter@TagLib@@UEAA@XZ
??1RelativeVolumeFrame@ID3v2@TagLib@@UEAA@XZ
??1String@TagLib@@UEAA@XZ
??1StringHandler@Info@RIFF@TagLib@@QEAA@XZ
??1StringList@TagLib@@UEAA@XZ
??1SynchronizedLyricsFrame@ID3v2@TagLib@@UEAA@XZ
??1TableOfContentsFrame@ID3v2@TagLib@@UEAA@XZ
??1Tag@APE@TagLib@@UEAA@XZ
??1Tag@ASF@TagLib@@UEAA@XZ
??1Tag@ID3v1@TagLib@@UEAA@XZ
??1Tag@ID3v2@TagLib@@UEAA@XZ
??1Tag@Info@RIFF@TagLib@@UEAA@XZ
??1Tag@MP4@TagLib@@UEAA@XZ
??1Tag@Mod@TagLib@@UEAA@XZ
??1Tag@TagLib@@UEAA@XZ
??1TextIdentificationFrame@ID3v2@TagLib@@UEAA@XZ
??1UniqueFileIdentifierFrame@ID3v2@TagLib@@UEAA@XZ
??1UnknownFrame@ID3v2@TagLib@@UEAA@XZ
??1UnknownMetadataBlock@FLAC@TagLib@@UEAA@XZ
??1UnsynchronizedLyricsFrame@ID3v2@TagLib@@UEAA@XZ
??1UrlLinkFrame@ID3v2@TagLib@@UEAA@XZ
??1UserTextIdentificationFrame@ID3v2@TagLib@@UEAA@XZ
??1UserUrlLinkFrame@ID3v2@TagLib@@UEAA@XZ
??1XingHeader@MPEG@TagLib@@UEAA@XZ
??1XiphComment@Ogg@TagLib@@UEAA@XZ
??4?$List@VByteVector@TagLib@@@TagLib@@QEAAAEAV01@AEBV01@@Z
??4?$List@VString@TagLib@@@TagLib@@QEAAAEAV01@AEBV01@@Z
??4?$Map@VString@TagLib@@VStringList@2@@TagLib@@QEAAAEAV01@AEBV01@@Z
??4Atom@MP4@TagLib@@QEAAAEAV012@AEBV012@@Z
??4Atoms@MP4@TagLib@@QEAAAEAV012@AEBV012@@Z
??4Attribute@ASF@TagLib@@QEAAAEAV012@AEBV012@@Z
??4ByteVector@TagLib@@QEAAAEAV01@AEBV01@@Z
??4ByteVector@TagLib@@QEAAAEAV01@D@Z
??4ByteVector@TagLib@@QEAAAEAV01@PEBD@Z
??4ByteVectorList@TagLib@@QEAAAEAV01@AEBV01@@Z
??4CoverArt@MP4@TagLib@@QEAAAEAV012@AEBV012@@Z
??4FileRef@TagLib@@QEAAAEAV01@AEBV01@@Z
??4FileTypeResolver@FileRef@TagLib@@QEAAAEAV012@$$QEAV012@@Z
??4FileTypeResolver@FileRef@TagLib@@QEAAAEAV012@AEBV012@@Z
??4Header@MPEG@TagLib@@QEAAAEAV012@AEBV012@@Z
??4Item@APE@TagLib@@QEAAAEAV012@AEBV012@@Z
??4Item@MP4@TagLib@@QEAAAEAV012@AEBV012@@Z
??4Latin1StringHandler@ID3v2@TagLib@@QEAAAEAV012@AEBV012@@Z
??4Picture@ASF@TagLib@@QEAAAEAV012@AEBV012@@Z
??4PropertyMap@TagLib@@QEAAAEAV01@AEBV01@@Z
??4RefCounter@TagLib@@QEAAAEAV01@AEBV01@@Z
??4StreamTypeResolver@FileRef@TagLib@@QEAAAEAV012@$$QEAV012@@Z
??4StreamTypeResolver@FileRef@TagLib@@QEAAAEAV012@AEBV012@@Z
??4String@TagLib@@QEAAAEAV01@AEBV01@@Z
??4String@TagLib@@QEAAAEAV01@AEBV?$basic_string@DU?$char_traits@D@std@@V?$allocator@D@2@@std@@@Z
??4String@TagLib@@QEAAAEAV01@AEBV?$basic_string@_WU?$char_traits@_W@std@@V?$allocator@_W@2@@std@@@Z
??4String@TagLib@@QEAAAEAV01@AEBVByteVector@1@@Z
??4String@TagLib@@QEAAAEAV01@D@Z
??4String@TagLib@@QEAAAEAV01@PEBD@Z
??4String@TagLib@@QEAAAEAV01@PEB_W@Z
??4String@TagLib@@QEAAAEAV01@_W@Z
??4StringHandler@ID3v1@TagLib@@QEAAAEAV012@$$QEAV012@@Z
??4StringHandler@ID3v1@TagLib@@QEAAAEAV012@AEBV012@@Z
??4StringHandler@Info@RIFF@TagLib@@QEAAAEAV0123@AEBV0123@@Z
??4StringList@TagLib@@QEAAAEAV01@AEBV01@@Z
??6@YAAEAV?$basic_ostream@DU?$char_traits@D@std@@@std@@AEAV01@AEBVByteVector@TagLib@@@Z
??6@YAAEAV?$basic_ostream@DU?$char_traits@D@std@@@std@@AEAV01@AEBVString@TagLib@@@Z
??6@YAAEAV?$basic_ostream@DU?$char_traits@D@std@@@std@@AEAV01@AEBVStringList@TagLib@@@Z
??8?$List@VByteVector@TagLib@@@TagLib@@QEBA_NAEBV01@@Z
??8?$List@VString@TagLib@@@TagLib@@QEBA_NAEBV01@@Z
??8ByteVector@TagLib@@QEBA_NAEBV01@@Z
??8ByteVector@TagLib@@QEBA_NPEBD@Z
??8FileRef@TagLib@@QEBA_NAEBV01@@Z
??8PropertyMap@TagLib@@QEBA_NAEBV01@@Z
??8String@TagLib@@QEBA_NAEBV01@@Z
??8String@TagLib@@QEBA_NPEBD@Z
??8String@TagLib@@QEBA_NPEB_W@Z
??9?$List@VByteVector@TagLib@@@TagLib@@QEBA_NAEBV01@@Z
??9?$List@VString@TagLib@@@TagLib@@QEBA_NAEBV01@@Z
??9ByteVector@TagLib@@QEBA_NAEBV01@@Z
??9ByteVector@TagLib@@QEBA_NPEBD@Z
??9FileRef@TagLib@@QEBA_NAEBV01@@Z
??9PropertyMap@TagLib@@QEBA_NAEBV01@@Z
??9String@TagLib@@QEBA_NAEBV01@@Z
??9String@TagLib@@QEBA_NPEBD@Z
??9String@TagLib@@QEBA_NPEB_W@Z
??A?$List@VByteVector@TagLib@@@TagLib@@QEAAAEAVByteVector@1@I@Z
??A?$List@VByteVector@TagLib@@@TagLib@@QEBAAEBVByteVector@1@I@Z
??A?$List@VString@TagLib@@@TagLib@@QEAAAEAVString@1@I@Z
??A?$List@VString@TagLib@@@TagLib@@QEBAAEBVString@1@I@Z
??A?$Map@VString@TagLib@@VStringList@2@@TagLib@@QEAAAEAVStringList@1@AEBVString@1@@Z
??A?$Map@VString@TagLib@@VStringList@2@@TagLib@@QEBAAEBVStringList@1@AEBVString@1@@Z
??AByteVector@TagLib@@QEAAAEADH@Z
??AByteVector@TagLib@@QEBAAEBDH@Z
??APropertyMap@TagLib@@QEAAAEAVStringList@1@AEBVString@1@@Z
??APropertyMap@TagLib@@QEBAAEBVStringList@1@AEBVString@1@@Z
??AString@TagLib@@QEAAAEA_WH@Z
??AString@TagLib@@QEBAAEB_WH@Z
??BFileName@TagLib@@QEBAPEBDXZ
??BFileName@TagLib@@QEBAPEB_WXZ
??H@YA?AVString@TagLib@@AEBV01@0@Z
??H@YA?AVString@TagLib@@AEBV01@PEBD@Z
??H@YA?AVString@TagLib@@PEBDAEBV01@@Z
??HByteVector@TagLib@@QEBA?AV01@AEBV01@@Z
??MByteVector@TagLib@@QEBA_NAEBV01@@Z
??MString@TagLib@@QEBA_NAEBV01@@Z
??OByteVector@TagLib@@QEBA_NAEBV01@@Z
??YString@TagLib@@QEAAAEAV01@AEBV01@@Z
??YString@TagLib@@QEAAAEAV01@D@Z
??YString@TagLib@@QEAAAEAV01@PEBD@Z
??YString@TagLib@@QEAAAEAV01@PEB_W@Z
??YString@TagLib@@QEAAAEAV01@_W@Z
??_7?$List@VByteVector@TagLib@@@TagLib@@6B@ DATA
??_7?$List@VString@TagLib@@@TagLib@@6B@ DATA
??_7?$Map@VString@TagLib@@VStringList@2@@TagLib@@6B@ DATA
??_7AttachedPictureFrame@ID3v2@TagLib@@6B@ DATA
??_7AttachedPictureFrameV22@ID3v2@TagLib@@6B@ DATA
??_7Attribute@ASF@TagLib@@6B@ DATA
??_7AudioProperties@TagLib@@6B@ DATA
??_7ByteVector@TagLib@@6B@ DATA
??_7ByteVectorList@TagLib@@6B@ DATA
??_7ByteVectorStream@TagLib@@6B@ DATA
??_7ChapterFrame@ID3v2@TagLib@@6B@ DATA
??_7CommentsFrame@ID3v2@TagLib@@6B@ DATA
??_7DebugListener@TagLib@@6B@ DATA
??_7EventTimingCodesFrame@ID3v2@TagLib@@6B@ DATA
??_7ExtendedHeader@ID3v2@TagLib@@6B@ DATA
??_7File@AIFF@RIFF@TagLib@@6B@ DATA
??_7File@APE@TagLib@@6B@ DATA
??_7File@ASF@TagLib@@6B@ DATA
??_7File@FLAC@Ogg@TagLib@@6B@ DATA
??_7File@FLAC@TagLib@@6B@ DATA
??_7File@IT@TagLib@@6B@ DATA
??_7File@MP4@TagLib@@6B@ DATA
??_7File@MPC@TagLib@@6B@ DATA
??_7File@MPEG@TagLib@@6B@ DATA
??_7File@Mod@TagLib@@6B@ DATA
??_7File@Ogg@TagLib@@6B@ DATA
??_7File@Opus@Ogg@TagLib@@6B@ DATA
??_7File@RIFF@TagLib@@6B@ DATA
??_7File@S3M@TagLib@@6B@ DATA
??_7File@Speex@Ogg@TagLib@@6B@ DATA
??_7File@TagLib@@6B@ DATA
??_7File@TrueAudio@TagLib@@6B@ DATA
??_7File@Vorbis@TagLib@@6B@ DATA
??_7File@WAV@RIFF@TagLib@@6B@ DATA
??_7File@WavPack@TagLib@@6B@ DATA
??_7File@XM@TagLib@@6B@ DATA
??_7FileBase@Mod@TagLib@@6B@ DATA
??_7FileRef@TagLib@@6B@ DATA
??_7FileStream@TagLib@@6B@ DATA
??_7FileTypeResolver@FileRef@TagLib@@6B@ DATA
??_7Footer@APE@TagLib@@6B@ DATA
??_7Footer@ID3v2@TagLib@@6B@ DATA
??_7Frame@ID3v2@TagLib@@6B@ DATA
??_7FrameFactory@ID3v2@TagLib@@6B@ DATA
??_7GeneralEncapsulatedObjectFrame@ID3v2@TagLib@@6B@ DATA
??_7Header@Frame@ID3v2@TagLib@@6B@ DATA
??_7Header@ID3v2@TagLib@@6B@ DATA
??_7Header@MPEG@TagLib@@6B@ DATA
??_7IOStream@TagLib@@6B@ DATA
??_7Item@APE@TagLib@@6B@ DATA
??_7Latin1StringHandler@ID3v2@TagLib@@6B@ DATA
??_7MetadataBlock@FLAC@TagLib@@6B@ DATA
??_7OwnershipFrame@ID3v2@TagLib@@6B@ DATA
??_7Page@Ogg@TagLib@@6B@ DATA
??_7PageHeader@Ogg@TagLib@@6B@ DATA
??_7Picture@ASF@TagLib@@6B@ DATA
??_7Picture@FLAC@TagLib@@6B@ DATA
??_7PodcastFrame@ID3v2@TagLib@@6B@ DATA
??_7PopularimeterFrame@ID3v2@TagLib@@6B@ DATA
??_7PrivateFrame@ID3v2@TagLib@@6B@ DATA
??_7Properties@AIFF@RIFF@TagLib@@6B@ DATA
??_7Properties@APE@TagLib@@6B@ DATA
??_7Properties@ASF@TagLib@@6B@ DATA
??_7Properties@FLAC@TagLib@@6B@ DATA
??_7Properties@IT@TagLib@@6B@ DATA
??_7Properties@MP4@TagLib@@6B@ DATA
??_7Properties@MPC@TagLib@@6B@ DATA
??_7Properties@MPEG@TagLib@@6B@ DATA
??_7Properties@Mod@TagLib@@6B@ DATA
??_7Properties@Opus@Ogg@TagLib@@6B@ DATA
??_7Properties@S3M@TagLib@@6B@ DATA
??_7Properties@Speex@Ogg@TagLib@@6B@ DATA
??_7Properties@TrueAudio@TagLib@@6B@ DATA
??_7Properties@Vorbis@TagLib@@6B@ DATA
??_7Properties@WAV@RIFF@TagLib@@6B@ DATA
??_7Properties@WavPack@TagLib@@6B@ DATA
??_7Properties@XM@TagLib@@6B@ DATA
??_7PropertyMap@TagLib@@6B@ DATA
??_7RefCounter@TagLib@@6B@ DATA
??_7RelativeVolumeFrame@ID3v2@TagLib@@6B@ DATA
??_7StreamTypeResolver@FileRef@TagLib@@6B@ DATA
??_7String@TagLib@@6B@ DATA
??_7StringHandler@ID3v1@TagLib@@6B@ DATA
??_7StringHandler@Info@RIFF@TagLib@@6B@ DATA
??_7StringList@TagLib@@6B@ DATA
??_7SynchronizedLyricsFrame@ID3v2@TagLib@@6B@ DATA
??_7TableOfContentsFrame@ID3v2@TagLib@@6B@ DATA
??_7Tag@APE@TagLib@@6B@ DATA
??_7Tag@ASF@TagLib@@6B@ DATA
??_7Tag@ID3v1@TagLib@@6B@ DATA
??_7Tag@ID3v2@TagLib@@6B@ DATA
??_7Tag@Info@RIFF@TagLib@@6B@ DATA
??_7Tag@MP4@TagLib@@6B@ DATA
??_7Tag@Mod@TagLib@@6B@ DATA
??_7Tag@TagLib@@6B@ DATA
??_7TextIdentificationFrame@ID3v2@TagLib@@6B@ DATA
??_7UniqueFileIdentifierFrame@ID3v2@TagLib@@6B@ DATA
??_7UnknownFrame@ID3v2@TagLib@@6B@ DATA
??_7UnknownMetadataBlock@FLAC@TagLib@@6B@ DATA
??_7UnsynchronizedLyricsFrame@ID3v2@TagLib@@6B@ DATA
??_7UrlLinkFrame@ID3v2@TagLib@@6B@ DATA
??_7UserTextIdentificationFrame@ID3v2@TagLib@@6B@ DATA
??_7UserUrlLinkFrame@ID3v2@TagLib@@6B@ DATA
??_7XingHeader@MPEG@TagLib@@6B@ DATA
??_7XiphComment@Ogg@TagLib@@6B@ DATA
??_FCommentsFrame@ID3v2@TagLib@@QEAAXXZ
??_FOwnershipFrame@ID3v2@TagLib@@QEAAXXZ
??_FPageHeader@Ogg@TagLib@@QEAAXXZ
??_FSynchronizedLyricsFrame@ID3v2@TagLib@@QEAAXXZ
??_FUnsynchronizedLyricsFrame@ID3v2@TagLib@@QEAAXXZ
??_FUserTextIdentificationFrame@ID3v2@TagLib@@QEAAXXZ
??_FUserUrlLinkFrame@ID3v2@TagLib@@QEAAXXZ
?APETag@File@APE@TagLib@@QEAAPEAVTag@23@_N@Z
?APETag@File@MPC@TagLib@@QEAAPEAVTag@APE@3@_N@Z
?APETag@File@MPEG@TagLib@@QEAAPEAVTag@APE@3@_N@Z
?APETag@File@WavPack@TagLib@@QEAAPEAVTag@APE@3@_N@Z
?ID3v1Tag@File@APE@TagLib@@QEAAPEAVTag@ID3v1@3@_N@Z
?ID3v1Tag@File@FLAC@TagLib@@QEAAPEAVTag@ID3v1@3@_N@Z
?ID3v1Tag@File@MPC@TagLib@@QEAAPEAVTag@ID3v1@3@_N@Z
?ID3v1Tag@File@MPEG@TagLib@@QEAAPEAVTag@ID3v1@3@_N@Z
?ID3v1Tag@File@TrueAudio@TagLib@@QEAAPEAVTag@ID3v1@3@_N@Z
?ID3v1Tag@File@WavPack@TagLib@@QEAAPEAVTag@ID3v1@3@_N@Z
?ID3v2Tag@File@FLAC@TagLib@@QEAAPEAVTag@ID3v2@3@_N@Z
?ID3v2Tag@File@MPEG@TagLib@@QEAAPEAVTag@ID3v2@3@_N@Z
?ID3v2Tag@File@TrueAudio@TagLib@@QEAAPEAVTag@ID3v2@3@_N@Z
?ID3v2Tag@File@WAV@RIFF@TagLib@@QEBAPEAVTag@ID3v2@4@XZ
?InfoTag@File@WAV@RIFF@TagLib@@QEBAPEAVTag@Info@34@XZ
?WCharByteOrder@String@TagLib@@0W4Type@12@B DATA
?absoluteGranularPosition@PageHeader@Ogg@TagLib@@QEBA_JXZ
?addAttribute@Tag@ASF@TagLib@@QEAAXAEBVString@3@AEBVAttribute@23@@Z
?addChildElement@TableOfContentsFrame@ID3v2@TagLib@@QEAAXAEBVByteVector@3@@Z
?addEmbeddedFrame@ChapterFrame@ID3v2@TagLib@@QEAAXPEAVFrame@23@@Z
?addEmbeddedFrame@TableOfContentsFrame@ID3v2@TagLib@@QEAAXPEAVFrame@23@@Z
?addField@XiphComment@Ogg@TagLib@@QEAAXAEBVString@3@0_N@Z
?addFileTypeResolver@FileRef@TagLib@@SAPEBVFileTypeResolver@12@PEBV312@@Z
?addFrame@Tag@ID3v2@TagLib@@QEAAXPEAVFrame@23@@Z
?addItem@Tag@MP4@TagLib@@AEAAXAEBVString@3@AEBVItem@23@@Z
?addPicture@File@FLAC@TagLib@@QEAAXPEAVPicture@23@@Z
?addPicture@XiphComment@Ogg@TagLib@@QEAAXPEAVPicture@FLAC@3@@Z
?addValue@Tag@APE@TagLib@@QEAAXAEBVString@3@0_N@Z
?album@Tag@APE@TagLib@@UEBA?AVString@3@XZ
?album@Tag@ASF@TagLib@@UEBA?AVString@3@XZ
?album@Tag@ID3v1@TagLib@@UEBA?AVString@3@XZ
?album@Tag@ID3v2@TagLib@@UEBA?AVString@3@XZ
?album@Tag@Info@RIFF@TagLib@@UEBA?AVString@4@XZ
?album@Tag@MP4@TagLib@@UEBA?AVString@3@XZ
?album@Tag@Mod@TagLib@@UEBA?AVString@3@XZ
?album@XiphComment@Ogg@TagLib@@UEBA?AVString@3@XZ
?albumGain@Properties@MPC@TagLib@@QEBAHXZ
?albumPeak@Properties@MPC@TagLib@@QEBAHXZ
?analyzeCurrent@Properties@APE@TagLib@@AEAAXPEAVFile@23@@Z
?analyzeOld@Properties@APE@TagLib@@AEAAXPEAVFile@23@@Z
?append@?$List@VByteVector@TagLib@@@TagLib@@QEAAAEAV12@AEBV12@@Z
?append@?$List@VByteVector@TagLib@@@TagLib@@QEAAAEAV12@AEBVByteVector@2@@Z
?append@?$List@VString@TagLib@@@TagLib@@QEAAAEAV12@AEBV12@@Z
?append@?$List@VString@TagLib@@@TagLib@@QEAAAEAV12@AEBVString@2@@Z
?append@ByteVector@TagLib@@QEAAAEAV12@AEBV12@@Z
?append@ByteVector@TagLib@@QEAAAEAV12@D@Z
?append@String@TagLib@@QEAAAEAV12@AEBV12@@Z
?append@StringList@TagLib@@QEAAAEAV12@AEBV12@@Z
?append@StringList@TagLib@@QEAAAEAV12@AEBVString@2@@Z
?appendValue@Item@APE@TagLib@@QEAAXAEBVString@3@@Z
?appendValues@Item@APE@TagLib@@QEAAXAEBVStringList@3@@Z
?artist@Tag@APE@TagLib@@UEBA?AVString@3@XZ
?artist@Tag@ASF@TagLib@@UEBA?AVString@3@XZ
?artist@Tag@ID3v1@TagLib@@UEBA?AVString@3@XZ
?artist@Tag@ID3v2@TagLib@@UEBA?AVString@3@XZ
?artist@Tag@Info@RIFF@TagLib@@UEBA?AVString@4@XZ
?artist@Tag@MP4@TagLib@@UEBA?AVString@3@XZ
?artist@Tag@Mod@TagLib@@UEBA?AVString@3@XZ
?artist@XiphComment@Ogg@TagLib@@UEBA?AVString@3@XZ
?asProperties@ChapterFrame@ID3v2@TagLib@@QEBA?AVPropertyMap@3@XZ
?asProperties@CommentsFrame@ID3v2@TagLib@@QEBA?AVPropertyMap@3@XZ
?asProperties@Frame@ID3v2@TagLib@@IEBA?AVPropertyMap@3@XZ
?asProperties@PodcastFrame@ID3v2@TagLib@@QEBA?AVPropertyMap@3@XZ
?asProperties@TableOfContentsFrame@ID3v2@TagLib@@QEBA?AVPropertyMap@3@XZ
?asProperties@TextIdentificationFrame@ID3v2@TagLib@@QEBA?AVPropertyMap@3@XZ
?asProperties@UniqueFileIdentifierFrame@ID3v2@TagLib@@QEBA?AVPropertyMap@3@XZ
?asProperties@UnsynchronizedLyricsFrame@ID3v2@TagLib@@QEBA?AVPropertyMap@3@XZ
?asProperties@UrlLinkFrame@ID3v2@TagLib@@QEBA?AVPropertyMap@3@XZ
?asProperties@UserTextIdentificationFrame@ID3v2@TagLib@@QEBA?AVPropertyMap@3@XZ
?asProperties@UserUrlLinkFrame@ID3v2@TagLib@@QEBA?AVPropertyMap@3@XZ
?at@ByteVector@TagLib@@QEBADI@Z
?atomDataType@Item@MP4@TagLib@@QEBA?AW4AtomDataType@23@XZ
?attribute@Tag@ASF@TagLib@@QEBA?AV?$List@VAttribute@ASF@TagLib@@@3@AEBVString@3@@Z
?attributeListMap@Tag@ASF@TagLib@@QEAAAEAV?$Map@VString@TagLib@@V?$List@VAttribute@ASF@TagLib@@@2@@3@XZ
?attributeListMap@Tag@ASF@TagLib@@QEBAAEBV?$Map@VString@TagLib@@V?$List@VAttribute@ASF@TagLib@@@2@@3@XZ
?audioProperties@File@AIFF@RIFF@TagLib@@UEBAPEAVProperties@234@XZ
?audioProperties@File@APE@TagLib@@UEBAPEAVProperties@23@XZ
?audioProperties@File@ASF@TagLib@@UEBAPEAVProperties@23@XZ
?audioProperties@File@FLAC@Ogg@TagLib@@UEBAPEAVProperties@24@XZ
?audioProperties@File@FLAC@TagLib@@UEBAPEAVProperties@23@XZ
?audioProperties@File@IT@TagLib@@UEBAPEAVProperties@23@XZ
?audioProperties@File@MP4@TagLib@@UEBAPEAVProperties@23@XZ
?audioProperties@File@MPC@TagLib@@UEBAPEAVProperties@23@XZ
?audioProperties@File@MPEG@TagLib@@UEBAPEAVProperties@23@XZ
?audioProperties@File@Mod@TagLib@@UEBAPEAVProperties@23@XZ
?audioProperties@File@Opus@Ogg@TagLib@@UEBAPEAVProperties@234@XZ
?audioProperties@File@S3M@TagLib@@UEBAPEAVProperties@23@XZ
?audioProperties@File@Speex@Ogg@TagLib@@UEBAPEAVProperties@234@XZ
?audioProperties@File@TrueAudio@TagLib@@UEBAPEAVProperties@23@XZ
?audioProperties@File@Vorbis@TagLib@@UEBAPEAVProperties@23@XZ
?audioProperties@File@WAV@RIFF@TagLib@@UEBAPEAVProperties@234@XZ
?audioProperties@File@WavPack@TagLib@@UEBAPEAVProperties@23@XZ
?audioProperties@File@XM@TagLib@@UEBAPEAVProperties@23@XZ
?audioProperties@FileRef@TagLib@@QEBAPEAVAudioProperties@2@XZ
?back@?$List@VByteVector@TagLib@@@TagLib@@QEAAAEAVByteVector@2@XZ
?back@?$List@VByteVector@TagLib@@@TagLib@@QEBAAEBVByteVector@2@XZ
?back@?$List@VString@TagLib@@@TagLib@@QEAAAEAVString@2@XZ
?back@?$List@VString@TagLib@@@TagLib@@QEBAAEBVString@2@XZ
?begin@?$List@VByteVector@TagLib@@@TagLib@@QEAA?AV?$_List_iterator@V?$_List_val@U?$_List_simple_types@VByteVector@TagLib@@@std@@@std@@@std@@XZ
?begin@?$List@VByteVector@TagLib@@@TagLib@@QEBA?AV?$_List_const_iterator@V?$_List_val@U?$_List_simple_types@VByteVector@TagLib@@@std@@@std@@@std@@XZ
?begin@?$List@VString@TagLib@@@TagLib@@QEAA?AV?$_List_iterator@V?$_List_val@U?$_List_simple_types@VString@TagLib@@@std@@@std@@@std@@XZ
?begin@?$List@VString@TagLib@@@TagLib@@QEBA?AV?$_List_const_iterator@V?$_List_val@U?$_List_simple_types@VString@TagLib@@@std@@@std@@@std@@XZ
?begin@?$Map@VString@TagLib@@VStringList@2@@TagLib@@QEAA?AV?$_Tree_iterator@V?$_Tree_val@U?$_Tree_simple_types@U?$pair@$$CBVString@TagLib@@VStringList@2@@std@@@std@@@std@@@std@@XZ
?begin@?$Map@VString@TagLib@@VStringList@2@@TagLib@@QEBA?AV?$_Tree_const_iterator@V?$_Tree_val@U?$_Tree_simple_types@U?$pair@$$CBVString@TagLib@@VStringList@2@@std@@@std@@@std@@@std@@XZ
?begin@ByteVector@TagLib@@QEAA?AV?$_Vector_iterator@V?$_Vector_val@U?$_Simple_types@D@std@@@std@@@std@@XZ
?begin@ByteVector@TagLib@@QEBA?AV?$_Vector_const_iterator@V?$_Vector_val@U?$_Simple_types@D@std@@@std@@@std@@XZ
?begin@String@TagLib@@QEAA?AV?$_String_iterator@V?$_String_val@U?$_Simple_types@_W@std@@@std@@@std@@XZ
?begin@String@TagLib@@QEBA?AV?$_String_const_iterator@V?$_String_val@U?$_Simple_types@_W@std@@@std@@@std@@XZ
?binaryData@Item@APE@TagLib@@QEBA?AVByteVector@3@XZ
?bitrate@Header@MPEG@TagLib@@QEBAHXZ
?bitrate@Properties@AIFF@RIFF@TagLib@@UEBAHXZ
?bitrate@Properties@APE@TagLib@@UEBAHXZ
?bitrate@Properties@ASF@TagLib@@UEBAHXZ
?bitrate@Properties@FLAC@TagLib@@UEBAHXZ
?bitrate@Properties@IT@TagLib@@UEBAHXZ
?bitrate@Properties@MP4@TagLib@@UEBAHXZ
?bitrate@Properties@MPC@TagLib@@UEBAHXZ
?bitrate@Properties@MPEG@TagLib@@UEBAHXZ
?bitrate@Properties@Mod@TagLib@@UEBAHXZ
?bitrate@Properties@Opus@Ogg@TagLib@@UEBAHXZ
?bitrate@Properties@S3M@TagLib@@UEBAHXZ
?bitrate@Properties@Speex@Ogg@TagLib@@UEBAHXZ
?bitrate@Properties@TrueAudio@TagLib@@UEBAHXZ
?bitrate@Properties@Vorbis@TagLib@@UEBAHXZ
?bitrate@Properties@WAV@RIFF@TagLib@@UEBAHXZ
?bitrate@Properties@WavPack@TagLib@@UEBAHXZ
?bitrate@Properties@XM@TagLib@@UEBAHXZ
?bitrateMaximum@Properties@Vorbis@TagLib@@QEBAHXZ
?bitrateMinimum@Properties@Vorbis@TagLib@@QEBAHXZ
?bitrateNominal@Properties@Speex@Ogg@TagLib@@QEBAHXZ
?bitrateNominal@Properties@Vorbis@TagLib@@QEBAHXZ
?bitsPerSample@Properties@AIFF@RIFF@TagLib@@QEBAHXZ
?bitsPerSample@Properties@APE@TagLib@@QEBAHXZ
?bitsPerSample@Properties@ASF@TagLib@@QEBAHXZ
?bitsPerSample@Properties@FLAC@TagLib@@QEBAHXZ
?bitsPerSample@Properties@MP4@TagLib@@UEBAHXZ
?bitsPerSample@Properties@TrueAudio@TagLib@@QEBAHXZ
?bitsPerSample@Properties@WAV@RIFF@TagLib@@QEBAHXZ
?bitsPerSample@Properties@WavPack@TagLib@@QEBAHXZ
?bpmSpeed@Properties@IT@TagLib@@QEBAEXZ
?bpmSpeed@Properties@S3M@TagLib@@QEBAEXZ
?bpmSpeed@Properties@XM@TagLib@@QEBAGXZ
?bufferSize@File@TagLib@@KAIXZ
?bufferSize@FileStream@TagLib@@KAIXZ
?channelMode@Header@MPEG@TagLib@@QEBA?AW4ChannelMode@123@XZ
?channelMode@Properties@MPEG@TagLib@@QEBA?AW4ChannelMode@Header@23@XZ
?channelType@RelativeVolumeFrame@ID3v2@TagLib@@QEBA?AW4ChannelType@123@XZ
?channels@Properties@AIFF@RIFF@TagLib@@UEBAHXZ
?channels@Properties@APE@TagLib@@UEBAHXZ
?channels@Properties@ASF@TagLib@@UEBAHXZ
?channels@Properties@FLAC@TagLib@@UEBAHXZ
?channels@Properties@IT@TagLib@@UEBAHXZ
?channels@Properties@MP4@TagLib@@UEBAHXZ
?channels@Properties@MPC@TagLib@@UEBAHXZ
?channels@Properties@MPEG@TagLib@@UEBAHXZ
?channels@Properties@Mod@TagLib@@UEBAHXZ
?channels@Properties@Opus@Ogg@TagLib@@UEBAHXZ
?channels@Properties@S3M@TagLib@@UEBAHXZ
?channels@Properties@Speex@Ogg@TagLib@@UEBAHXZ
?channels@Properties@TrueAudio@TagLib@@UEBAHXZ
?channels@Properties@Vorbis@TagLib@@UEBAHXZ
?channels@Properties@WAV@RIFF@TagLib@@UEBAHXZ
?channels@Properties@WavPack@TagLib@@UEBAHXZ
?channels@Properties@XM@TagLib@@UEBAHXZ
?channels@RelativeVolumeFrame@ID3v2@TagLib@@QEBA?AV?$List@W4ChannelType@RelativeVolumeFrame@ID3v2@TagLib@@@3@XZ
?checkEncoding@Frame@ID3v2@TagLib@@KA?AW4Type@String@3@AEBVStringList@3@W4453@@Z
?checkEncoding@Frame@ID3v2@TagLib@@KA?AW4Type@String@3@AEBVStringList@3@W4453@I@Z
?checkFields@UserTextIdentificationFrame@ID3v2@TagLib@@AEAAXXZ
?checkKey@Tag@APE@TagLib@@SA_NAEBVString@3@@Z
?checkKey@XiphComment@Ogg@TagLib@@SA_NAEBVString@3@@Z
?checkTextEncoding@Frame@ID3v2@TagLib@@IEBA?AW4Type@String@3@AEBVStringList@3@W4453@@Z
?checksum@ByteVector@TagLib@@QEBAIXZ
?childElements@TableOfContentsFrame@ID3v2@TagLib@@QEBA?AVByteVectorList@3@XZ
?chunkCount@File@RIFF@TagLib@@IEBAIXZ
?chunkData@File@RIFF@TagLib@@IEAA?AVByteVector@3@I@Z
?chunkDataSize@File@RIFF@TagLib@@IEBAII@Z
?chunkName@File@RIFF@TagLib@@IEBA?AVByteVector@3@I@Z
?chunkOffset@File@RIFF@TagLib@@IEBAII@Z
?chunkPadding@File@RIFF@TagLib@@IEBAII@Z
?clear@?$List@VByteVector@TagLib@@@TagLib@@QEAAAEAV12@XZ
?clear@?$List@VString@TagLib@@@TagLib@@QEAAAEAV12@XZ
?clear@?$Map@VString@TagLib@@VStringList@2@@TagLib@@QEAAAEAV12@XZ
?clear@ByteVector@TagLib@@QEAAAEAV12@XZ
?clear@ByteVectorStream@TagLib@@UEAAXXZ
?clear@File@TagLib@@QEAAXXZ
?clear@FileStream@TagLib@@UEAAXXZ
?clear@IOStream@TagLib@@UEAAXXZ
?clear@String@TagLib@@QEAAAEAV12@XZ
?code@Picture@FLAC@TagLib@@UEBAHXZ
?code@UnknownMetadataBlock@FLAC@TagLib@@UEBAHXZ
?codec@Properties@ASF@TagLib@@QEBA?AW4Codec@123@XZ
?codec@Properties@MP4@TagLib@@QEBA?AW4Codec@123@XZ
?codecDescription@Properties@ASF@TagLib@@QEBA?AVString@3@XZ
?codecName@Properties@ASF@TagLib@@QEBA?AVString@3@XZ
?colorDepth@Picture@FLAC@TagLib@@QEBAHXZ
?comment@Tag@APE@TagLib@@UEBA?AVString@3@XZ
?comment@Tag@ASF@TagLib@@UEBA?AVString@3@XZ
?comment@Tag@ID3v1@TagLib@@UEBA?AVString@3@XZ
?comment@Tag@ID3v2@TagLib@@UEBA?AVString@3@XZ
?comment@Tag@Info@RIFF@TagLib@@UEBA?AVString@4@XZ
?comment@Tag@MP4@TagLib@@UEBA?AVString@3@XZ
?comment@Tag@Mod@TagLib@@UEBA?AVString@3@XZ
?comment@XiphComment@Ogg@TagLib@@UEBA?AVString@3@XZ
?commentPrefix@Frame@ID3v2@TagLib@@2VString@3@B DATA
?compatibleVersion@Properties@IT@TagLib@@QEBAGXZ
?completeTagSize@Footer@APE@TagLib@@QEBAIXZ
?completeTagSize@Header@ID3v2@TagLib@@QEBAIXZ
?compression@Header@Frame@ID3v2@TagLib@@QEBA_NXZ
?compressionName@Properties@AIFF@RIFF@TagLib@@QEBA?AVString@4@XZ
?compressionType@Properties@AIFF@RIFF@TagLib@@QEBA?AVByteVector@4@XZ
?containers@Atom@MP4@TagLib@@0QBQEBDB DATA
?contains@?$List@VByteVector@TagLib@@@TagLib@@QEBA_NAEBVByteVector@2@@Z
?contains@?$List@VString@TagLib@@@TagLib@@QEBA_NAEBVString@2@@Z
?contains@?$Map@VString@TagLib@@VStringList@2@@TagLib@@QEBA_NAEBVString@2@@Z
?contains@PropertyMap@TagLib@@QEBA_NAEBV12@@Z
?contains@PropertyMap@TagLib@@QEBA_NAEBVString@2@@Z
?contains@Tag@ASF@TagLib@@QEBA_NAEBVString@3@@Z
?contains@Tag@MP4@TagLib@@QEBA_NAEBVString@3@@Z
?contains@XiphComment@Ogg@TagLib@@QEBA_NAEBVString@3@@Z
?containsAt@ByteVector@TagLib@@QEBA_NAEBV12@III@Z
?containsPacket@Page@Ogg@TagLib@@QEBA?AW4ContainsPacketFlags@123@H@Z
?copyright@Tag@ASF@TagLib@@UEBA?AVString@3@XZ
?count@RefCounter@TagLib@@QEBAHXZ
?counter@PopularimeterFrame@ID3v2@TagLib@@QEBAIXZ
?create@FileRef@TagLib@@SAPEAVFile@2@VFileName@2@_NW4ReadStyle@AudioProperties@2@@Z
?createFrame@FrameFactory@ID3v2@TagLib@@QEBAPEAVFrame@23@AEBVByteVector@3@I@Z
?createFrame@FrameFactory@ID3v2@TagLib@@QEBAPEAVFrame@23@AEBVByteVector@3@PEAVHeader@23@@Z
?createFrame@FrameFactory@ID3v2@TagLib@@QEBAPEAVFrame@23@AEBVByteVector@3@PEBVHeader@23@@Z
?createFrame@FrameFactory@ID3v2@TagLib@@QEBAPEAVFrame@23@AEBVByteVector@3@_N@Z
?createTIPLFrame@TextIdentificationFrame@ID3v2@TagLib@@SAPEAV123@AEBVPropertyMap@3@@Z
?createTMCLFrame@TextIdentificationFrame@ID3v2@TagLib@@SAPEAV123@AEBVPropertyMap@3@@Z
?createTextualFrame@Frame@ID3v2@TagLib@@SAPEAV123@AEBVString@3@AEBVStringList@3@@Z
?data@ByteVector@TagLib@@QEAAPEADXZ
?data@ByteVector@TagLib@@QEBAPEBDXZ
?data@ByteVectorStream@TagLib@@QEAAPEAVByteVector@2@XZ
?data@CoverArt@MP4@TagLib@@QEBA?AVByteVector@3@XZ
?data@Picture@FLAC@TagLib@@QEBA?AVByteVector@3@XZ
?data@PrivateFrame@ID3v2@TagLib@@QEBA?AVByteVector@3@XZ
?data@String@TagLib@@QEBA?AVByteVector@2@W4Type@12@@Z
?data@UnknownFrame@ID3v2@TagLib@@QEBA?AVByteVector@3@XZ
?data@UnknownMetadataBlock@FLAC@TagLib@@QEBA?AVByteVector@3@XZ
?dataLengthIndicator@Header@Frame@ID3v2@TagLib@@QEBA_NXZ
?dataSize@Attribute@ASF@TagLib@@QEBAHXZ
?dataSize@PageHeader@Ogg@TagLib@@QEBAHXZ
?dataSize@Picture@ASF@TagLib@@QEBAHXZ
?datePurchased@OwnershipFrame@ID3v2@TagLib@@QEBA?AVString@3@XZ
?decode@SynchData@ID3v2@TagLib@@YA?AVByteVector@3@AEBV43@@Z
?defaultFileExtensions@FileRef@TagLib@@SA?AVStringList@2@XZ
?defaultTextEncoding@FrameFactory@ID3v2@TagLib@@QEBA?AW4Type@String@3@XZ
?deref@RefCounter@TagLib@@QEAA_NXZ
?description@AttachedPictureFrame@ID3v2@TagLib@@QEBA?AVString@3@XZ
?description@CommentsFrame@ID3v2@TagLib@@QEBA?AVString@3@XZ
?description@GeneralEncapsulatedObjectFrame@ID3v2@TagLib@@QEBA?AVString@3@XZ
?description@Picture@ASF@TagLib@@QEBA?AVString@3@XZ
?description@Picture@FLAC@TagLib@@QEBA?AVString@3@XZ
?description@SynchronizedLyricsFrame@ID3v2@TagLib@@QEBA?AVString@3@XZ
?description@UnsynchronizedLyricsFrame@ID3v2@TagLib@@QEBA?AVString@3@XZ
?description@UserTextIdentificationFrame@ID3v2@TagLib@@QEBA?AVString@3@XZ
?description@UserUrlLinkFrame@ID3v2@TagLib@@QEBA?AVString@3@XZ
?detach@?$List@VByteVector@TagLib@@@TagLib@@IEAAXXZ
?detach@?$List@VString@TagLib@@@TagLib@@IEAAXXZ
?detach@?$Map@VString@TagLib@@VStringList@2@@TagLib@@IEAAXXZ
?detach@ByteVector@TagLib@@IEAAXXZ
?detach@String@TagLib@@IEAAXXZ
?downgradeFrames@Tag@ID3v2@TagLib@@IEBAXPEAV?$List@PEAVFrame@ID3v2@TagLib@@@3@0@Z
?duplicate@Tag@TagLib@@SAXPEBV12@PEAV12@_N@Z
?elementID@ChapterFrame@ID3v2@TagLib@@QEBA?AVByteVector@3@XZ
?elementID@TableOfContentsFrame@ID3v2@TagLib@@QEBA?AVByteVector@3@XZ
?email@PopularimeterFrame@ID3v2@TagLib@@QEBA?AVString@3@XZ
?embeddedFrameList@ChapterFrame@ID3v2@TagLib@@QEBAAEBV?$List@PEAVFrame@ID3v2@TagLib@@@3@AEBVByteVector@3@@Z
?embeddedFrameList@ChapterFrame@ID3v2@TagLib@@QEBAAEBV?$List@PEAVFrame@ID3v2@TagLib@@@3@XZ
?embeddedFrameList@TableOfContentsFrame@ID3v2@TagLib@@QEBAAEBV?$List@PEAVFrame@ID3v2@TagLib@@@3@AEBVByteVector@3@@Z
?embeddedFrameList@TableOfContentsFrame@ID3v2@TagLib@@QEBAAEBV?$List@PEAVFrame@ID3v2@TagLib@@@3@XZ
?embeddedFrameListMap@ChapterFrame@ID3v2@TagLib@@QEBAAEBV?$Map@VByteVector@TagLib@@V?$List@PEAVFrame@ID3v2@TagLib@@@2@@3@XZ
?embeddedFrameListMap@TableOfContentsFrame@ID3v2@TagLib@@QEBAAEBV?$Map@VByteVector@TagLib@@V?$List@PEAVFrame@ID3v2@TagLib@@@2@@3@XZ
?encryption@Header@Frame@ID3v2@TagLib@@QEBA_NXZ
?end@?$List@VByteVector@TagLib@@@TagLib@@QEAA?AV?$_List_iterator@V?$_List_val@U?$_List_simple_types@VByteVector@TagLib@@@std@@@std@@@std@@XZ
?end@?$List@VByteVector@TagLib@@@TagLib@@QEBA?AV?$_List_const_iterator@V?$_List_val@U?$_List_simple_types@VByteVector@TagLib@@@std@@@std@@@std@@XZ
?end@?$List@VString@TagLib@@@TagLib@@QEAA?AV?$_List_iterator@V?$_List_val@U?$_List_simple_types@VString@TagLib@@@std@@@std@@@std@@XZ
?end@?$List@VString@TagLib@@@TagLib@@QEBA?AV?$_List_const_iterator@V?$_List_val@U?$_List_simple_types@VString@TagLib@@@std@@@std@@@std@@XZ
?end@?$Map@VString@TagLib@@VStringList@2@@TagLib@@QEAA?AV?$_Tree_iterator@V?$_Tree_val@U?$_Tree_simple_types@U?$pair@$$CBVString@TagLib@@VStringList@2@@std@@@std@@@std@@@std@@XZ
?end@?$Map@VString@TagLib@@VStringList@2@@TagLib@@QEBA?AV?$_Tree_const_iterator@V?$_Tree_val@U?$_Tree_simple_types@U?$pair@$$CBVString@TagLib@@VStringList@2@@std@@@std@@@std@@@std@@XZ
?end@ByteVector@TagLib@@QEAA?AV?$_Vector_iterator@V?$_Vector_val@U?$_Simple_types@D@std@@@std@@@std@@XZ
?end@ByteVector@TagLib@@QEBA?AV?$_Vector_const_iterator@V?$_Vector_val@U?$_Simple_types@D@std@@@std@@@std@@XZ
?end@String@TagLib@@QEAA?AV?$_String_iterator@V?$_String_val@U?$_Simple_types@_W@std@@@std@@@std@@XZ
?end@String@TagLib@@QEBA?AV?$_String_const_iterator@V?$_String_val@U?$_Simple_types@_W@std@@@std@@@std@@XZ
?endOffset@ChapterFrame@ID3v2@TagLib@@QEBAIXZ
?endTime@ChapterFrame@ID3v2@TagLib@@QEBAIXZ
?endsWith@ByteVector@TagLib@@QEBA_NAEBV12@@Z
?endsWithPartialMatch@ByteVector@TagLib@@QEBAHAEBV12@@Z
?entryCount@TableOfContentsFrame@ID3v2@TagLib@@QEBAIXZ
?erase@?$List@VByteVector@TagLib@@@TagLib@@QEAA?AV?$_List_iterator@V?$_List_val@U?$_List_simple_types@VByteVector@TagLib@@@std@@@std@@@std@@V34@@Z
?erase@?$List@VString@TagLib@@@TagLib@@QEAA?AV?$_List_iterator@V?$_List_val@U?$_List_simple_types@VString@TagLib@@@std@@@std@@@std@@V34@@Z
?erase@?$Map@VString@TagLib@@VStringList@2@@TagLib@@QEAAAEAV12@AEBVString@2@@Z
?erase@?$Map@VString@TagLib@@VStringList@2@@TagLib@@QEAAAEAV12@V?$_Tree_iterator@V?$_Tree_val@U?$_Tree_simple_types@U?$pair@$$CBVString@TagLib@@VStringList@2@@std@@@std@@@std@@@std@@@Z
?erase@PropertyMap@TagLib@@QEAAAEAV12@AEBV12@@Z
?erase@PropertyMap@TagLib@@QEAAAEAV12@AEBVString@2@@Z
?experimentalIndicator@Header@ID3v2@TagLib@@QEBA_NXZ
?extendedHeader@Header@ID3v2@TagLib@@QEBA_NXZ
?extendedHeader@Tag@ID3v2@TagLib@@QEBAPEAVExtendedHeader@23@XZ
?factory@FrameFactory@ID3v2@TagLib@@0V123@A DATA
?fieldCount@XiphComment@Ogg@TagLib@@QEBAIXZ
?fieldData@Frame@ID3v2@TagLib@@IEBA?AVByteVector@3@AEBV43@@Z
?fieldList@TextIdentificationFrame@ID3v2@TagLib@@QEBA?AVStringList@3@XZ
?fieldList@UserTextIdentificationFrame@ID3v2@TagLib@@QEBA?AVStringList@3@XZ
?fieldListMap@Tag@Info@RIFF@TagLib@@QEBA?AV?$Map@VByteVector@TagLib@@VString@2@@4@XZ
?fieldListMap@XiphComment@Ogg@TagLib@@QEBAAEBV?$Map@VString@TagLib@@VStringList@2@@3@XZ
?fieldText@Tag@Info@RIFF@TagLib@@QEBA?AVString@4@AEBVByteVector@4@@Z
?file@FileRef@TagLib@@QEBAPEAVFile@2@XZ
?fileAlterPreservation@Header@Frame@ID3v2@TagLib@@QEBA_NXZ
?fileFormatVersion@Properties@S3M@TagLib@@QEBAGXZ
?fileIdentifier@Footer@APE@TagLib@@SA?AVByteVector@3@XZ
?fileIdentifier@Header@ID3v2@TagLib@@SA?AVByteVector@3@XZ
?fileIdentifier@Tag@APE@TagLib@@SA?AVByteVector@3@XZ
?fileIdentifier@Tag@ID3v1@TagLib@@SA?AVByteVector@3@XZ
?fileName@GeneralEncapsulatedObjectFrame@ID3v2@TagLib@@QEBA?AVString@3@XZ
?fileOffset@Page@Ogg@TagLib@@QEBAJXZ
?find@?$List@VByteVector@TagLib@@@TagLib@@QEAA?AV?$_List_iterator@V?$_List_val@U?$_List_simple_types@VByteVector@TagLib@@@std@@@std@@@std@@AEBVByteVector@2@@Z
?find@?$List@VByteVector@TagLib@@@TagLib@@QEBA?AV?$_List_const_iterator@V?$_List_val@U?$_List_simple_types@VByteVector@TagLib@@@std@@@std@@@std@@AEBVByteVector@2@@Z
?find@?$List@VString@TagLib@@@TagLib@@QEAA?AV?$_List_iterator@V?$_List_val@U?$_List_simple_types@VString@TagLib@@@std@@@std@@@std@@AEBVString@2@@Z
?find@?$List@VString@TagLib@@@TagLib@@QEBA?AV?$_List_const_iterator@V?$_List_val@U?$_List_simple_types@VString@TagLib@@@std@@@std@@@std@@AEBVString@2@@Z
?find@?$Map@VString@TagLib@@VStringList@2@@TagLib@@QEAA?AV?$_Tree_iterator@V?$_Tree_val@U?$_Tree_simple_types@U?$pair@$$CBVString@TagLib@@VStringList@2@@std@@@std@@@std@@@std@@AEBVString@2@@Z
?find@?$Map@VString@TagLib@@VStringList@2@@TagLib@@QEBA?AV?$_Tree_const_iterator@V?$_Tree_val@U?$_Tree_simple_types@U?$pair@$$CBVString@TagLib@@VStringList@2@@std@@@std@@@std@@@std@@AEBVString@2@@Z
?find@Atom@MP4@TagLib@@QEAAPEAV123@PEBD000@Z
?find@Atoms@MP4@TagLib@@QEAAPEAVAtom@23@PEBD000@Z
?find@ByteVector@TagLib@@QEBAHAEBV12@IH@Z
?find@ByteVector@TagLib@@QEBAHDIH@Z
?find@File@TagLib@@QEAAJAEBVByteVector@2@J0@Z
?find@PropertyMap@TagLib@@QEAA?AV?$_Tree_iterator@V?$_Tree_val@U?$_Tree_simple_types@U?$pair@$$CBVString@TagLib@@VStringList@2@@std@@@std@@@std@@@std@@AEBVString@2@@Z
?find@PropertyMap@TagLib@@QEBA?AV?$_Tree_const_iterator@V?$_Tree_val@U?$_Tree_simple_types@U?$pair@$$CBVString@TagLib@@VStringList@2@@std@@@std@@@std@@@std@@AEBVString@2@@Z
?find@String@TagLib@@QEBAHAEBV12@H@Z
?find@UserTextIdentificationFrame@ID3v2@TagLib@@SAPEAV123@PEAVTag@23@AEBVString@3@@Z
?find@UserUrlLinkFrame@ID3v2@TagLib@@SAPEAV123@PEAVTag@23@AEBVString@3@@Z
?findByDescription@CommentsFrame@ID3v2@TagLib@@SAPEAV123@PEBVTag@23@AEBVString@3@@Z
?findByDescription@UnsynchronizedLyricsFrame@ID3v2@TagLib@@SAPEAV123@PEBVTag@23@AEBVString@3@@Z
?findByElementID@ChapterFrame@ID3v2@TagLib@@SAPEAV123@PEBVTag@23@AEBVByteVector@3@@Z
?findByElementID@TableOfContentsFrame@ID3v2@TagLib@@SAPEAV123@PEBVTag@23@AEBVByteVector@3@@Z
?findByOwner@UniqueFileIdentifierFrame@ID3v2@TagLib@@SAPEAV123@PEBVTag@23@AEBVString@3@@Z
?findID3v2@File@MPEG@TagLib@@AEAAJXZ
?findTopLevel@TableOfContentsFrame@ID3v2@TagLib@@SAPEAV123@PEBVTag@23@@Z
?findall@Atom@MP4@TagLib@@QEAA?AV?$List@PEAVAtom@MP4@TagLib@@@3@PEBD_N@Z
?firstFrameOffset@File@MPEG@TagLib@@QEAAJXZ
?firstPacketContinued@PageHeader@Ogg@TagLib@@QEBA_NXZ
?firstPacketIndex@Page@Ogg@TagLib@@QEBAHXZ
?firstPageHeader@File@Ogg@TagLib@@QEAAPEBVPageHeader@23@XZ
?firstPageOfStream@PageHeader@Ogg@TagLib@@QEBA_NXZ
?flags@Properties@IT@TagLib@@QEBAGXZ
?flags@Properties@S3M@TagLib@@QEBAGXZ
?flags@Properties@XM@TagLib@@QEBAGXZ
?footer@Tag@APE@TagLib@@QEBAPEAVFooter@23@XZ
?footer@Tag@ID3v2@TagLib@@QEBAPEAVFooter@23@XZ
?footerPresent@Footer@APE@TagLib@@QEBA_NXZ
?footerPresent@Header@ID3v2@TagLib@@QEBA_NXZ
?format@CoverArt@MP4@TagLib@@QEBA?AW4Format@123@XZ
?format@Properties@WAV@RIFF@TagLib@@QEBAHXZ
?frameAlterPreservation@Header@Frame@ID3v2@TagLib@@QEBA_NXZ
?frameID@Frame@ID3v2@TagLib@@QEBA?AVByteVector@3@XZ
?frameID@Header@Frame@ID3v2@TagLib@@QEBA?AVByteVector@4@XZ
?frameIDToKey@Frame@ID3v2@TagLib@@KA?AVString@3@AEBVByteVector@3@@Z
?frameLength@Header@MPEG@TagLib@@QEBAHXZ
?frameList@Tag@ID3v2@TagLib@@QEBAAEBV?$List@PEAVFrame@ID3v2@TagLib@@@3@AEBVByteVector@3@@Z
?frameList@Tag@ID3v2@TagLib@@QEBAAEBV?$List@PEAVFrame@ID3v2@TagLib@@@3@XZ
?frameListMap@Tag@ID3v2@TagLib@@QEBAAEBV?$Map@VByteVector@TagLib@@V?$List@PEAVFrame@ID3v2@TagLib@@@2@@3@XZ
?frameSize@Header@Frame@ID3v2@TagLib@@QEBAIXZ
?fromBase64@ByteVector@TagLib@@SA?AV12@AEBV12@@Z
?fromCString@ByteVector@TagLib@@SA?AV12@PEBDI@Z
?fromFloat32BE@ByteVector@TagLib@@SA?AV12@M@Z
?fromFloat32LE@ByteVector@TagLib@@SA?AV12@M@Z
?fromFloat64BE@ByteVector@TagLib@@SA?AV12@N@Z
?fromFloat64LE@ByteVector@TagLib@@SA?AV12@N@Z
?fromInvalid@Picture@ASF@TagLib@@SA?AV123@XZ
?fromLongLong@ByteVector@TagLib@@SA?AV12@_J_N@Z
?fromShort@ByteVector@TagLib@@SA?AV12@F_N@Z
?fromUInt@ByteVector@TagLib@@SA?AV12@I_N@Z
?fromUInt@SynchData@ID3v2@TagLib@@YA?AVByteVector@3@I@Z
?front@?$List@VByteVector@TagLib@@@TagLib@@QEAAAEAVByteVector@2@XZ
?front@?$List@VByteVector@TagLib@@@TagLib@@QEBAAEBVByteVector@2@XZ
?front@?$List@VString@TagLib@@@TagLib@@QEAAAEAVString@2@XZ
?front@?$List@VString@TagLib@@@TagLib@@QEBAAEBVString@2@XZ
?genre@ID3v1@TagLib@@YA?AVString@2@H@Z
?genre@Tag@APE@TagLib@@UEBA?AVString@3@XZ
?genre@Tag@ASF@TagLib@@UEBA?AVString@3@XZ
?genre@Tag@ID3v1@TagLib@@UEBA?AVString@3@XZ
?genre@Tag@ID3v2@TagLib@@UEBA?AVString@3@XZ
?genre@Tag@Info@RIFF@TagLib@@UEBA?AVString@4@XZ
?genre@Tag@MP4@TagLib@@UEBA?AVString@3@XZ
?genre@Tag@Mod@TagLib@@UEBA?AVString@3@XZ
?genre@XiphComment@Ogg@TagLib@@UEBA?AVString@3@XZ
?genreIndex@ID3v1@TagLib@@YAHAEBVString@2@@Z
?genreList@ID3v1@TagLib@@YA?AVStringList@2@XZ
?genreMap@ID3v1@TagLib@@YA?AV?$Map@VString@TagLib@@H@2@XZ
?genreNumber@Tag@ID3v1@TagLib@@QEBAIXZ
?getCopyWithNewPageSequenceNumber@Page@Ogg@TagLib@@QEAAPEAV123@H@Z
?globalVolume@Properties@IT@TagLib@@QEBAEXZ
?globalVolume@Properties@S3M@TagLib@@QEBAEXZ
?groupingIdentity@Header@Frame@ID3v2@TagLib@@QEBA_NXZ
?hasAPETag@File@APE@TagLib@@QEBA_NXZ
?hasAPETag@File@MPC@TagLib@@QEBA_NXZ
?hasAPETag@File@MPEG@TagLib@@QEBA_NXZ
?hasAPETag@File@WavPack@TagLib@@QEBA_NXZ
?hasID3v1Tag@File@APE@TagLib@@QEBA_NXZ
?hasID3v1Tag@File@FLAC@TagLib@@QEBA_NXZ
?hasID3v1Tag@File@MPC@TagLib@@QEBA_NXZ
?hasID3v1Tag@File@MPEG@TagLib@@QEBA_NXZ
?hasID3v1Tag@File@TrueAudio@TagLib@@QEBA_NXZ
?hasID3v1Tag@File@WavPack@TagLib@@QEBA_NXZ
?hasID3v2Tag@File@AIFF@RIFF@TagLib@@QEBA_NXZ
?hasID3v2Tag@File@FLAC@TagLib@@QEBA_NXZ
?hasID3v2Tag@File@MPEG@TagLib@@QEBA_NXZ
?hasID3v2Tag@File@TrueAudio@TagLib@@QEBA_NXZ
?hasID3v2Tag@File@WAV@RIFF@TagLib@@QEBA_NXZ
?hasInfoTag@File@WAV@RIFF@TagLib@@QEBA_NXZ
?hasMP4Tag@File@MP4@TagLib@@QEBA_NXZ
?hasXiphComment@File@FLAC@Ogg@TagLib@@QEBA_NXZ
?hasXiphComment@File@FLAC@TagLib@@QEBA_NXZ
?header@Frame@ID3v2@TagLib@@IEBAPEAVHeader@123@XZ
?header@Page@Ogg@TagLib@@QEBAPEBVPageHeader@23@XZ
?header@Tag@ID3v2@TagLib@@QEBAPEAVHeader@23@XZ
?headerPresent@Footer@APE@TagLib@@QEBA_NXZ
?headerSize@Frame@ID3v2@TagLib@@SAII@Z
?headerSize@Frame@ID3v2@TagLib@@SAIXZ
?height@Picture@FLAC@TagLib@@QEBAHXZ
?identification@RelativeVolumeFrame@ID3v2@TagLib@@QEBA?AVString@3@XZ
?identifier@UniqueFileIdentifierFrame@ID3v2@TagLib@@QEBA?AVByteVector@3@XZ
?inputSampleRate@Properties@Opus@Ogg@TagLib@@QEBAHXZ
?insert@?$List@VByteVector@TagLib@@@TagLib@@QEAA?AV?$_List_iterator@V?$_List_val@U?$_List_simple_types@VByteVector@TagLib@@@std@@@std@@@std@@V34@AEBVByteVector@2@@Z
?insert@?$List@VString@TagLib@@@TagLib@@QEAA?AV?$_List_iterator@V?$_List_val@U?$_List_simple_types@VString@TagLib@@@std@@@std@@@std@@V34@AEBVString@2@@Z
?insert@?$Map@VString@TagLib@@VStringList@2@@TagLib@@QEAAAEAV12@AEBVString@2@AEBVStringList@2@@Z
?insert@ByteVectorStream@TagLib@@UEAAXAEBVByteVector@2@KK@Z
?insert@File@TagLib@@QEAAXAEBVByteVector@2@KK@Z
?insert@FileStream@TagLib@@UEAAXAEBVByteVector@2@KK@Z
?insert@PropertyMap@TagLib@@QEAA_NAEBVString@2@AEBVStringList@2@@Z
?instance@FrameFactory@ID3v2@TagLib@@SAPEAV123@XZ
?instrumentCount@Properties@IT@TagLib@@QEBAGXZ
?instrumentCount@Properties@Mod@TagLib@@QEBAIXZ
?instrumentCount@Properties@XM@TagLib@@QEBAGXZ
?instrumentPrefix@Frame@ID3v2@TagLib@@2VString@3@B DATA
?involvedPeopleMap@TextIdentificationFrame@ID3v2@TagLib@@SAAEBV?$Map@VString@TagLib@@V12@@3@XZ
?isAiffC@Properties@AIFF@RIFF@TagLib@@QEBA_NXZ
?isAscii@String@TagLib@@QEBA_NXZ
?isAvailable@zlib@TagLib@@YA_NXZ
?isCopyrighted@Header@MPEG@TagLib@@QEBA_NXZ
?isCopyrighted@Properties@MPEG@TagLib@@QEBA_NXZ
?isEmpty@?$List@VByteVector@TagLib@@@TagLib@@QEBA_NXZ
?isEmpty@?$List@VString@TagLib@@@TagLib@@QEBA_NXZ
?isEmpty@?$Map@VString@TagLib@@VStringList@2@@TagLib@@QEBA_NXZ
?isEmpty@ByteVector@TagLib@@QEBA_NXZ
?isEmpty@Item@APE@TagLib@@QEBA_NXZ
?isEmpty@String@TagLib@@QEBA_NXZ
?isEmpty@Tag@APE@TagLib@@UEBA_NXZ
?isEmpty@Tag@ASF@TagLib@@UEBA_NXZ
?isEmpty@Tag@ID3v2@TagLib@@UEBA_NXZ
?isEmpty@Tag@Info@RIFF@TagLib@@UEBA_NXZ
?isEmpty@Tag@MP4@TagLib@@UEBA_NXZ
?isEmpty@Tag@TagLib@@UEBA_NXZ
?isEmpty@XiphComment@Ogg@TagLib@@UEBA_NXZ
?isEncrypted@Properties@ASF@TagLib@@QEBA_NXZ
?isEncrypted@Properties@MP4@TagLib@@QEBA_NXZ
?isHeader@Footer@APE@TagLib@@QEBA_NXZ
?isLatin1@String@TagLib@@QEBA_NXZ
?isLossless@Properties@WavPack@TagLib@@QEBA_NXZ
?isNull@ByteVector@TagLib@@QEBA_NXZ
?isNull@FileRef@TagLib@@QEBA_NXZ
?isNull@String@TagLib@@QEBA_NXZ
?isOpen@ByteVectorStream@TagLib@@UEBA_NXZ
?isOpen@File@TagLib@@QEBA_NXZ
?isOpen@FileStream@TagLib@@UEBA_NXZ
?isOrdered@TableOfContentsFrame@ID3v2@TagLib@@QEBA_NXZ
?isOriginal@Header@MPEG@TagLib@@QEBA_NXZ
?isOriginal@Properties@MPEG@TagLib@@QEBA_NXZ
?isPadded@Header@MPEG@TagLib@@QEBA_NXZ
?isReadOnly@Item@APE@TagLib@@QEBA_NXZ
?isReadable@File@TagLib@@SA_NPEBD@Z
?isSupported@File@AIFF@RIFF@TagLib@@SA_NPEAVIOStream@4@@Z
?isSupported@File@APE@TagLib@@SA_NPEAVIOStream@3@@Z
?isSupported@File@ASF@TagLib@@SA_NPEAVIOStream@3@@Z
?isSupported@File@FLAC@Ogg@TagLib@@SA_NPEAVIOStream@4@@Z
?isSupported@File@FLAC@TagLib@@SA_NPEAVIOStream@3@@Z
?isSupported@File@MP4@TagLib@@SA_NPEAVIOStream@3@@Z
?isSupported@File@MPC@TagLib@@SA_NPEAVIOStream@3@@Z
?isSupported@File@MPEG@TagLib@@SA_NPEAVIOStream@3@@Z
?isSupported@File@Opus@Ogg@TagLib@@SA_NPEAVIOStream@4@@Z
?isSupported@File@Speex@Ogg@TagLib@@SA_NPEAVIOStream@4@@Z
?isSupported@File@TrueAudio@TagLib@@SA_NPEAVIOStream@3@@Z
?isSupported@File@Vorbis@TagLib@@SA_NPEAVIOStream@3@@Z
?isSupported@File@WAV@RIFF@TagLib@@SA_NPEAVIOStream@4@@Z
?isSupported@File@WavPack@TagLib@@SA_NPEAVIOStream@3@@Z
?isTopLevel@TableOfContentsFrame@ID3v2@TagLib@@QEBA_NXZ
?isValid@File@TagLib@@QEBA_NXZ
?isValid@Header@MPEG@TagLib@@QEBA_NXZ
?isValid@Item@MP4@TagLib@@QEBA_NXZ
?isValid@PageHeader@Ogg@TagLib@@QEBA_NXZ
?isValid@Picture@ASF@TagLib@@QEBA_NXZ
?isValid@XingHeader@MPEG@TagLib@@QEBA_NXZ
?isWritable@File@TagLib@@SA_NPEBD@Z
?item@Tag@MP4@TagLib@@QEBA?AVItem@23@AEBVString@3@@Z
?itemCount@Footer@APE@TagLib@@QEBAIXZ
?itemListMap@Tag@APE@TagLib@@QEBAAEBV?$Map@$$CBVString@TagLib@@VItem@APE@2@@3@XZ
?itemListMap@Tag@MP4@TagLib@@QEAAAEAV?$Map@VString@TagLib@@VItem@MP4@2@@3@XZ
?itemMap@Tag@MP4@TagLib@@QEBAAEBV?$Map@VString@TagLib@@VItem@MP4@2@@3@XZ
?key@Item@APE@TagLib@@QEBA?AVString@3@XZ
?keyToFrameID@Frame@ID3v2@TagLib@@KA?AVByteVector@3@AEBVString@3@@Z
?keyToTXXX@Frame@ID3v2@TagLib@@KA?AVString@3@AEBV43@@Z
?lacingValues@PageHeader@Ogg@TagLib@@AEBA?AVByteVector@3@XZ
?language@Attribute@ASF@TagLib@@QEBAHXZ
?language@CommentsFrame@ID3v2@TagLib@@QEBA?AVByteVector@3@XZ
?language@SynchronizedLyricsFrame@ID3v2@TagLib@@QEBA?AVByteVector@3@XZ
?language@UnsynchronizedLyricsFrame@ID3v2@TagLib@@QEBA?AVByteVector@3@XZ
?lastFrameOffset@File@MPEG@TagLib@@QEAAJXZ
?lastPacketCompleted@PageHeader@Ogg@TagLib@@QEBA_NXZ
?lastPageHeader@File@Ogg@TagLib@@QEAAPEBVPageHeader@23@XZ
?lastPageOfStream@PageHeader@Ogg@TagLib@@QEBA_NXZ
?latin1StringHandler@Tag@ID3v2@TagLib@@SAPEBVLatin1StringHandler@23@XZ
?layer@Header@MPEG@TagLib@@QEBAHXZ
?layer@Properties@MPEG@TagLib@@QEBAHXZ
?length@ByteVectorStream@TagLib@@UEAAJXZ
?length@File@TagLib@@QEAAJXZ
?length@FileStream@TagLib@@UEAAJXZ
?length@Properties@AIFF@RIFF@TagLib@@UEBAHXZ
?length@Properties@APE@TagLib@@UEBAHXZ
?length@Properties@ASF@TagLib@@UEBAHXZ
?length@Properties@FLAC@TagLib@@UEBAHXZ
?length@Properties@IT@TagLib@@UEBAHXZ
?length@Properties@MP4@TagLib@@UEBAHXZ
?length@Properties@MPC@TagLib@@UEBAHXZ
?length@Properties@MPEG@TagLib@@UEBAHXZ
?length@Properties@Mod@TagLib@@UEBAHXZ
?length@Properties@Opus@Ogg@TagLib@@UEBAHXZ
?length@Properties@S3M@TagLib@@UEBAHXZ
?length@Properties@Speex@Ogg@TagLib@@UEBAHXZ
?length@Properties@TrueAudio@TagLib@@UEBAHXZ
?length@Properties@Vorbis@TagLib@@UEBAHXZ
?length@Properties@WAV@RIFF@TagLib@@UEBAHXZ
?length@Properties@WavPack@TagLib@@UEBAHXZ
?length@Properties@XM@TagLib@@UEBAHXZ
?length@String@TagLib@@QEBAIXZ
?lengthInMilliseconds@AudioProperties@TagLib@@QEBAHXZ
?lengthInMilliseconds@Properties@AIFF@RIFF@TagLib@@QEBAHXZ
?lengthInMilliseconds@Properties@APE@TagLib@@QEBAHXZ
?lengthInMilliseconds@Properties@ASF@TagLib@@QEBAHXZ
?lengthInMilliseconds@Properties@FLAC@TagLib@@QEBAHXZ
?lengthInMilliseconds@Properties@IT@TagLib@@QEBAHXZ
?lengthInMilliseconds@Properties@MP4@TagLib@@QEBAHXZ
?lengthInMilliseconds@Properties@MPC@TagLib@@QEBAHXZ
?lengthInMilliseconds@Properties@MPEG@TagLib@@QEBAHXZ
?lengthInMilliseconds@Properties@Mod@TagLib@@QEBAHXZ
?lengthInMilliseconds@Properties@Opus@Ogg@TagLib@@QEBAHXZ
?lengthInMilliseconds@Properties@S3M@TagLib@@QEBAHXZ
?lengthInMilliseconds@Properties@Speex@Ogg@TagLib@@QEBAHXZ
?lengthInMilliseconds@Properties@TrueAudio@TagLib@@QEBAHXZ
?lengthInMilliseconds@Properties@Vorbis@TagLib@@QEBAHXZ
?lengthInMilliseconds@Properties@WAV@RIFF@TagLib@@QEBAHXZ
?lengthInMilliseconds@Properties@WavPack@TagLib@@QEBAHXZ
?lengthInMilliseconds@Properties@XM@TagLib@@QEBAHXZ
?lengthInPatterns@Properties@IT@TagLib@@QEBAGXZ
?lengthInPatterns@Properties@Mod@TagLib@@QEBAEXZ
?lengthInPatterns@Properties@S3M@TagLib@@QEBAGXZ
?lengthInPatterns@Properties@XM@TagLib@@QEBAGXZ
?lengthInSeconds@AudioProperties@TagLib@@QEBAHXZ
?lengthInSeconds@Properties@AIFF@RIFF@TagLib@@QEBAHXZ
?lengthInSeconds@Properties@APE@TagLib@@QEBAHXZ
?lengthInSeconds@Properties@ASF@TagLib@@QEBAHXZ
?lengthInSeconds@Properties@FLAC@TagLib@@QEBAHXZ
?lengthInSeconds@Properties@IT@TagLib@@QEBAHXZ
?lengthInSeconds@Properties@MP4@TagLib@@QEBAHXZ
?lengthInSeconds@Properties@MPC@TagLib@@QEBAHXZ
?lengthInSeconds@Properties@MPEG@TagLib@@QEBAHXZ
?lengthInSeconds@Properties@Mod@TagLib@@QEBAHXZ
?lengthInSeconds@Properties@Opus@Ogg@TagLib@@QEBAHXZ
?lengthInSeconds@Properties@S3M@TagLib@@QEBAHXZ
?lengthInSeconds@Properties@Speex@Ogg@TagLib@@QEBAHXZ
?lengthInSeconds@Properties@TrueAudio@TagLib@@QEBAHXZ
?lengthInSeconds@Properties@Vorbis@TagLib@@QEBAHXZ
?lengthInSeconds@Properties@WAV@RIFF@TagLib@@QEBAHXZ
?lengthInSeconds@Properties@WavPack@TagLib@@QEBAHXZ
?lengthInSeconds@Properties@XM@TagLib@@QEBAHXZ
?lyricsPrefix@Frame@ID3v2@TagLib@@2VString@3@B DATA
?majorVersion@Header@ID3v2@TagLib@@QEBAIXZ
?makeTIPLProperties@TextIdentificationFrame@ID3v2@TagLib@@AEBA?AVPropertyMap@3@XZ
?makeTMCLProperties@TextIdentificationFrame@ID3v2@TagLib@@AEBA?AVPropertyMap@3@XZ
?masterVolume@Properties@S3M@TagLib@@QEBAEXZ
?merge@PropertyMap@TagLib@@QEAAAEAV12@AEBV12@@Z
?mid@ByteVector@TagLib@@QEBA?AV12@II@Z
?mimeType@AttachedPictureFrame@ID3v2@TagLib@@QEBA?AVString@3@XZ
?mimeType@GeneralEncapsulatedObjectFrame@ID3v2@TagLib@@QEBA?AVString@3@XZ
?mimeType@Picture@ASF@TagLib@@QEBA?AVString@3@XZ
?mimeType@Picture@FLAC@TagLib@@QEBA?AVString@3@XZ
?mixVolume@Properties@IT@TagLib@@QEBAEXZ
?mpcVersion@Properties@MPC@TagLib@@QEBAHXZ
?name@ByteVectorStream@TagLib@@UEBA?AVFileName@2@XZ
?name@File@TagLib@@QEBA?AVFileName@2@XZ
?name@FileStream@TagLib@@UEBA?AVFileName@2@XZ
?nextFrameOffset@File@MPEG@TagLib@@QEAAJJ@Z
?null@ByteVector@TagLib@@2V12@A DATA
?null@String@TagLib@@2V12@A DATA
?numColors@Picture@FLAC@TagLib@@QEBAHXZ
?numContainers@Atom@MP4@TagLib@@0HB DATA
?number@String@TagLib@@SA?AV12@H@Z
?object@GeneralEncapsulatedObjectFrame@ID3v2@TagLib@@QEBA?AVByteVector@3@XZ
?opusVersion@Properties@Opus@Ogg@TagLib@@QEBAHXZ
?owner@PrivateFrame@ID3v2@TagLib@@QEBA?AVString@3@XZ
?owner@UniqueFileIdentifierFrame@ID3v2@TagLib@@QEBA?AVString@3@XZ
?packet@File@Ogg@TagLib@@QEAA?AVByteVector@3@I@Z
?packetCount@Page@Ogg@TagLib@@QEBAIXZ
?packetSizes@PageHeader@Ogg@TagLib@@QEBA?AV?$List@H@3@XZ
?packets@Page@Ogg@TagLib@@QEBA?AVByteVectorList@3@XZ
?padIlst@Tag@MP4@TagLib@@AEBA?AVByteVector@3@AEBV43@H@Z
?pageSequenceNumber@Page@Ogg@TagLib@@QEBAHXZ
?pageSequenceNumber@PageHeader@Ogg@TagLib@@QEBAHXZ
?paginate@Page@Ogg@TagLib@@SA?AV?$List@PEAVPage@Ogg@TagLib@@@3@AEBVByteVectorList@3@W4PaginationStrategy@123@IH_N22@Z
?panningSeparation@Properties@IT@TagLib@@QEBAEXZ
?parse@Attribute@ASF@TagLib@@QEAA?AVString@3@AEAVFile@23@H@Z
?parse@ExtendedHeader@ID3v2@TagLib@@IEAAXAEBVByteVector@3@@Z
?parse@FileRef@TagLib@@AEAAXPEAVIOStream@2@_NW4ReadStyle@AudioProperties@2@@Z
?parse@FileRef@TagLib@@AEAAXVFileName@2@_NW4ReadStyle@AudioProperties@2@@Z
?parse@Footer@APE@TagLib@@IEAAXAEBVByteVector@3@@Z
?parse@Frame@ID3v2@TagLib@@IEAAXAEBVByteVector@3@@Z
?parse@Header@ID3v2@TagLib@@IEAAXAEBVByteVector@3@@Z
?parse@Header@MPEG@TagLib@@AEAAXPEAVFile@3@J_N@Z
?parse@Item@APE@TagLib@@QEAAXAEBVByteVector@3@@Z
?parse@Latin1StringHandler@ID3v2@TagLib@@UEBA?AVString@3@AEBVByteVector@3@@Z
?parse@Picture@ASF@TagLib@@QEAAXAEBVByteVector@3@@Z
?parse@Picture@FLAC@TagLib@@QEAA_NAEBVByteVector@3@@Z
?parse@StringHandler@ID3v1@TagLib@@UEBA?AVString@3@AEBVByteVector@3@@Z
?parse@StringHandler@Info@RIFF@TagLib@@UEBA?AVString@4@AEBVByteVector@4@@Z
?parse@Tag@APE@TagLib@@IEAAXAEBVByteVector@3@@Z
?parse@Tag@ID3v1@TagLib@@IEAAXAEBVByteVector@3@@Z
?parse@Tag@ID3v2@TagLib@@IEAAXAEBVByteVector@3@@Z
?parse@Tag@Info@RIFF@TagLib@@IEAAXAEBVByteVector@4@@Z
?parse@XingHeader@MPEG@TagLib@@AEAAXAEBVByteVector@3@@Z
?parse@XiphComment@Ogg@TagLib@@IEAAXAEBVByteVector@3@@Z
?parseBool@Tag@MP4@TagLib@@AEAAXPEBVAtom@23@@Z
?parseByte@Tag@MP4@TagLib@@AEAAXPEBVAtom@23@@Z
?parseCovr@Tag@MP4@TagLib@@AEAAXPEBVAtom@23@@Z
?parseData2@Tag@MP4@TagLib@@AEAA?AV?$List@UAtomData@MP4@TagLib@@@3@PEBVAtom@23@H_N@Z
?parseData@Tag@MP4@TagLib@@AEAA?AVByteVectorList@3@PEBVAtom@23@H_N@Z
?parseFields@AttachedPictureFrame@ID3v2@TagLib@@MEAAXAEBVByteVector@3@@Z
?parseFields@AttachedPictureFrameV22@ID3v2@TagLib@@MEAAXAEBVByteVector@3@@Z
?parseFields@ChapterFrame@ID3v2@TagLib@@MEAAXAEBVByteVector@3@@Z
?parseFields@CommentsFrame@ID3v2@TagLib@@MEAAXAEBVByteVector@3@@Z
?parseFields@EventTimingCodesFrame@ID3v2@TagLib@@MEAAXAEBVByteVector@3@@Z
?parseFields@GeneralEncapsulatedObjectFrame@ID3v2@TagLib@@MEAAXAEBVByteVector@3@@Z
?parseFields@OwnershipFrame@ID3v2@TagLib@@MEAAXAEBVByteVector@3@@Z
?parseFields@PodcastFrame@ID3v2@TagLib@@MEAAXAEBVByteVector@3@@Z
?parseFields@PopularimeterFrame@ID3v2@TagLib@@MEAAXAEBVByteVector@3@@Z
?parseFields@PrivateFrame@ID3v2@TagLib@@MEAAXAEBVByteVector@3@@Z
?parseFields@RelativeVolumeFrame@ID3v2@TagLib@@MEAAXAEBVByteVector@3@@Z
?parseFields@SynchronizedLyricsFrame@ID3v2@TagLib@@MEAAXAEBVByteVector@3@@Z
?parseFields@TableOfContentsFrame@ID3v2@TagLib@@MEAAXAEBVByteVector@3@@Z
?parseFields@TextIdentificationFrame@ID3v2@TagLib@@MEAAXAEBVByteVector@3@@Z
?parseFields@UniqueFileIdentifierFrame@ID3v2@TagLib@@MEAAXAEBVByteVector@3@@Z
?parseFields@UnknownFrame@ID3v2@TagLib@@MEAAXAEBVByteVector@3@@Z
?parseFields@UnsynchronizedLyricsFrame@ID3v2@TagLib@@MEAAXAEBVByteVector@3@@Z
?parseFields@UrlLinkFrame@ID3v2@TagLib@@MEAAXAEBVByteVector@3@@Z
?parseFields@UserUrlLinkFrame@ID3v2@TagLib@@MEAAXAEBVByteVector@3@@Z
?parseFreeForm@Tag@MP4@TagLib@@AEAAXPEBVAtom@23@@Z
?parseGnre@Tag@MP4@TagLib@@AEAAXPEBVAtom@23@@Z
?parseInt@Tag@MP4@TagLib@@AEAAXPEBVAtom@23@@Z
?parseIntPair@Tag@MP4@TagLib@@AEAAXPEBVAtom@23@@Z
?parseLongLong@Tag@MP4@TagLib@@AEAAXPEBVAtom@23@@Z
?parseText@Tag@MP4@TagLib@@AEAAXPEBVAtom@23@H@Z
?parseUInt@Tag@MP4@TagLib@@AEAAXPEBVAtom@23@@Z
?path@Atom@MP4@TagLib@@QEAA_NAEAV?$List@PEAVAtom@MP4@TagLib@@@3@PEBD11@Z
?path@Atoms@MP4@TagLib@@QEAA?AV?$List@PEAVAtom@MP4@TagLib@@@3@PEBD000@Z
?patternCount@Properties@IT@TagLib@@QEBAGXZ
?patternCount@Properties@S3M@TagLib@@QEBAGXZ
?patternCount@Properties@XM@TagLib@@QEBAGXZ
?peakVolume@RelativeVolumeFrame@ID3v2@TagLib@@QEBA?AUPeakVolume@123@W4ChannelType@123@@Z
?peakVolume@RelativeVolumeFrame@ID3v2@TagLib@@QEBA?AUPeakVolume@123@XZ
?picture@AttachedPictureFrame@ID3v2@TagLib@@QEBA?AVByteVector@3@XZ
?picture@Picture@ASF@TagLib@@QEBA?AVByteVector@3@XZ
?pictureList@File@FLAC@TagLib@@QEAA?AV?$List@PEAVPicture@FLAC@TagLib@@@3@XZ
?pictureList@XiphComment@Ogg@TagLib@@QEAA?AV?$List@PEAVPicture@FLAC@TagLib@@@3@XZ
?pitchWheelDepth@Properties@IT@TagLib@@QEBAEXZ
?prepend@?$List@VByteVector@TagLib@@@TagLib@@QEAAAEAV12@AEBV12@@Z
?prepend@?$List@VByteVector@TagLib@@@TagLib@@QEAAAEAV12@AEBVByteVector@2@@Z
?prepend@?$List@VString@TagLib@@@TagLib@@QEAAAEAV12@AEBV12@@Z
?prepend@?$List@VString@TagLib@@@TagLib@@QEAAAEAV12@AEBVString@2@@Z
?previousFrameOffset@File@MPEG@TagLib@@QEAAJJ@Z
?pricePaid@OwnershipFrame@ID3v2@TagLib@@QEBA?AVString@3@XZ
?properties@File@AIFF@RIFF@TagLib@@QEBA?AVPropertyMap@4@XZ
?properties@File@APE@TagLib@@QEBA?AVPropertyMap@3@XZ
?properties@File@ASF@TagLib@@QEBA?AVPropertyMap@3@XZ
?properties@File@FLAC@Ogg@TagLib@@QEBA?AVPropertyMap@4@XZ
?properties@File@FLAC@TagLib@@QEBA?AVPropertyMap@3@XZ
?properties@File@IT@TagLib@@QEBA?AVPropertyMap@3@XZ
?properties@File@MP4@TagLib@@QEBA?AVPropertyMap@3@XZ
?properties@File@MPC@TagLib@@QEBA?AVPropertyMap@3@XZ
?properties@File@MPEG@TagLib@@QEBA?AVPropertyMap@3@XZ
?properties@File@Mod@TagLib@@QEBA?AVPropertyMap@3@XZ
?properties@File@Opus@Ogg@TagLib@@QEBA?AVPropertyMap@4@XZ
?properties@File@S3M@TagLib@@QEBA?AVPropertyMap@3@XZ
?properties@File@Speex@Ogg@TagLib@@QEBA?AVPropertyMap@4@XZ
?properties@File@TagLib@@QEBA?AVPropertyMap@2@XZ
?properties@File@TrueAudio@TagLib@@QEBA?AVPropertyMap@3@XZ
?properties@File@Vorbis@TagLib@@QEBA?AVPropertyMap@3@XZ
?properties@File@WAV@RIFF@TagLib@@QEBA?AVPropertyMap@4@XZ
?properties@File@WavPack@TagLib@@QEBA?AVPropertyMap@3@XZ
?properties@File@XM@TagLib@@QEBA?AVPropertyMap@3@XZ
?properties@Tag@APE@TagLib@@QEBA?AVPropertyMap@3@XZ
?properties@Tag@ASF@TagLib@@QEBA?AVPropertyMap@3@XZ
?properties@Tag@ID3v2@TagLib@@QEBA?AVPropertyMap@3@XZ
?properties@Tag@MP4@TagLib@@QEBA?AVPropertyMap@3@XZ
?properties@Tag@Mod@TagLib@@QEBA?AVPropertyMap@3@XZ
?properties@Tag@TagLib@@QEBA?AVPropertyMap@2@XZ
?properties@XiphComment@Ogg@TagLib@@QEBA?AVPropertyMap@3@XZ
?protectionEnabled@Header@MPEG@TagLib@@QEBA_NXZ
?protectionEnabled@Properties@MPEG@TagLib@@QEBA_NXZ
?rating@PopularimeterFrame@ID3v2@TagLib@@QEBAHXZ
?rating@Tag@ASF@TagLib@@UEBA?AVString@3@XZ
?rbegin@ByteVector@TagLib@@QEAA?AV?$reverse_iterator@V?$_Vector_iterator@V?$_Vector_val@U?$_Simple_types@D@std@@@std@@@std@@@std@@XZ
?rbegin@ByteVector@TagLib@@QEBA?AV?$reverse_iterator@V?$_Vector_const_iterator@V?$_Vector_val@U?$_Simple_types@D@std@@@std@@@std@@@std@@XZ
?read@File@AIFF@RIFF@TagLib@@AEAAX_N@Z
?read@File@APE@TagLib@@AEAAX_N@Z
?read@File@ASF@TagLib@@AEAAXXZ
?read@File@FLAC@Ogg@TagLib@@AEAAX_NW4ReadStyle@AudioProperties@4@@Z
?read@File@FLAC@TagLib@@AEAAX_N@Z
?read@File@IT@TagLib@@AEAAX_N@Z
?read@File@MP4@TagLib@@AEAAX_N@Z
?read@File@MPC@TagLib@@AEAAX_N@Z
?read@File@MPEG@TagLib@@AEAAX_N@Z
?read@File@Mod@TagLib@@AEAAX_N@Z
?read@File@Opus@Ogg@TagLib@@AEAAX_N@Z
?read@File@RIFF@TagLib@@AEAAXXZ
?read@File@S3M@TagLib@@AEAAX_N@Z
?read@File@Speex@Ogg@TagLib@@AEAAX_N@Z
?read@File@TrueAudio@TagLib@@AEAAX_N@Z
?read@File@Vorbis@TagLib@@AEAAX_N@Z
?read@File@WAV@RIFF@TagLib@@AEAAX_N@Z
?read@File@WavPack@TagLib@@AEAAX_N@Z
?read@File@XM@TagLib@@AEAAX_N@Z
?read@PageHeader@Ogg@TagLib@@AEAAXPEAVFile@23@J@Z
?read@Properties@AIFF@RIFF@TagLib@@AEAAXPEAVFile@234@@Z
?read@Properties@APE@TagLib@@AEAAXPEAVFile@23@J@Z
?read@Properties@FLAC@TagLib@@AEAAXAEBVByteVector@3@J@Z
?read@Properties@MP4@TagLib@@AEAAXPEAVFile@23@PEAVAtoms@23@@Z
?read@Properties@MPEG@TagLib@@AEAAXPEAVFile@23@@Z
?read@Properties@Opus@Ogg@TagLib@@AEAAXPEAVFile@234@@Z
?read@Properties@Speex@Ogg@TagLib@@AEAAXPEAVFile@234@@Z
?read@Properties@TrueAudio@TagLib@@AEAAXAEBVByteVector@3@J@Z
?read@Properties@Vorbis@TagLib@@AEAAXPEAVFile@23@@Z
?read@Properties@WAV@RIFF@TagLib@@AEAAXPEAVFile@234@@Z
?read@Properties@WavPack@TagLib@@AEAAXPEAVFile@23@J@Z
?read@Tag@APE@TagLib@@IEAAXXZ
?read@Tag@ID3v1@TagLib@@IEAAXXZ
?read@Tag@ID3v2@TagLib@@IEAAXXZ
?readBlock@ByteVectorStream@TagLib@@UEAA?AVByteVector@2@K@Z
?readBlock@File@TagLib@@QEAA?AVByteVector@2@K@Z
?readBlock@FileStream@TagLib@@UEAA?AVByteVector@2@K@Z
?readByte@FileBase@Mod@TagLib@@IEAA_NAEAE@Z
?readOnly@ByteVectorStream@TagLib@@UEBA_NXZ
?readOnly@File@TagLib@@QEBA_NXZ
?readOnly@FileStream@TagLib@@UEBA_NXZ
?readOnly@Header@Frame@ID3v2@TagLib@@QEBA_NXZ
?readPages@File@Ogg@TagLib@@AEAA_NI@Z
?readSV7@Properties@MPC@TagLib@@AEAAXAEBVByteVector@3@J@Z
?readSV8@Properties@MPC@TagLib@@AEAAXPEAVFile@23@J@Z
?readString@FileBase@Mod@TagLib@@IEAA_NAEAVString@3@K@Z
?readStringField@Frame@ID3v2@TagLib@@IEAA?AVString@3@AEBVByteVector@3@W4Type@43@PEAH@Z
?readU16B@FileBase@Mod@TagLib@@IEAA_NAEAG@Z
?readU16L@FileBase@Mod@TagLib@@IEAA_NAEAG@Z
?readU32B@FileBase@Mod@TagLib@@IEAA_NAEAK@Z
?readU32L@FileBase@Mod@TagLib@@IEAA_NAEAK@Z
?rebuildAggregateFrames@FrameFactory@ID3v2@TagLib@@QEBAXPEAVTag@23@@Z
?ref@RefCounter@TagLib@@QEAAXXZ
?remove@File@MPC@TagLib@@QEAAXH@Z
?removeAllFields@XiphComment@Ogg@TagLib@@QEAAXXZ
?removeAllPictures@XiphComment@Ogg@TagLib@@QEAAXXZ
?removeBlock@ByteVectorStream@TagLib@@UEAAXKK@Z
?removeBlock@File@TagLib@@QEAAXKK@Z
?removeBlock@FileStream@TagLib@@UEAAXKK@Z
?removeChildElement@TableOfContentsFrame@ID3v2@TagLib@@QEAAXAEBVByteVector@3@@Z
?removeChunk@File@RIFF@TagLib@@IEAAXAEBVByteVector@3@@Z
?removeChunk@File@RIFF@TagLib@@IEAAXI@Z
?removeEmbeddedFrame@ChapterFrame@ID3v2@TagLib@@QEAAXPEAVFrame@23@_N@Z
?removeEmbeddedFrame@TableOfContentsFrame@ID3v2@TagLib@@QEAAXPEAVFrame@23@_N@Z
?removeEmbeddedFrames@ChapterFrame@ID3v2@TagLib@@QEAAXAEBVByteVector@3@@Z
?removeEmbeddedFrames@TableOfContentsFrame@ID3v2@TagLib@@QEAAXAEBVByteVector@3@@Z
?removeEmpty@PropertyMap@TagLib@@QEAAXXZ
?removeField@Tag@Info@RIFF@TagLib@@QEAAXAEBVByteVector@4@@Z
?removeField@XiphComment@Ogg@TagLib@@QEAAXAEBVString@3@0@Z
?removeFields@XiphComment@Ogg@TagLib@@QEAAXAEBVString@3@0@Z
?removeFields@XiphComment@Ogg@TagLib@@QEAAXAEBVString@3@@Z
?removeFrame@Tag@ID3v2@TagLib@@QEAAXPEAVFrame@23@_N@Z
?removeFrames@Tag@ID3v2@TagLib@@QEAAXAEBVByteVector@3@@Z
?removeItem@Tag@APE@TagLib@@QEAAXAEBVString@3@@Z
?removeItem@Tag@ASF@TagLib@@QEAAXAEBVString@3@@Z
?removeItem@Tag@MP4@TagLib@@QEAAXAEBVString@3@@Z
?removePicture@File@FLAC@TagLib@@QEAAXPEAVPicture@23@_N@Z
?removePicture@XiphComment@Ogg@TagLib@@QEAAXPEAVPicture@FLAC@3@_N@Z
?removePictures@File@FLAC@TagLib@@QEAAXXZ
?removeTagChunks@File@WAV@RIFF@TagLib@@AEAAXW4TagTypes@1234@@Z
?removeUnsupportedProperties@File@AIFF@RIFF@TagLib@@QEAAXAEBVStringList@4@@Z
?removeUnsupportedProperties@File@APE@TagLib@@QEAAXAEBVStringList@3@@Z
?removeUnsupportedProperties@File@ASF@TagLib@@QEAAXAEBVStringList@3@@Z
?removeUnsupportedProperties@File@FLAC@TagLib@@QEAAXAEBVStringList@3@@Z
?removeUnsupportedProperties@File@MP4@TagLib@@QEAAXAEBVStringList@3@@Z
?removeUnsupportedProperties@File@MPC@TagLib@@QEAAXAEBVStringList@3@@Z
?removeUnsupportedProperties@File@MPEG@TagLib@@QEAAXAEBVStringList@3@@Z
?removeUnsupportedProperties@File@TagLib@@QEAAXAEBVStringList@2@@Z
?removeUnsupportedProperties@File@TrueAudio@TagLib@@QEAAXAEBVStringList@3@@Z
?removeUnsupportedProperties@File@WAV@RIFF@TagLib@@QEAAXAEBVStringList@4@@Z
?removeUnsupportedProperties@File@WavPack@TagLib@@QEAAXAEBVStringList@3@@Z
?removeUnsupportedProperties@Tag@APE@TagLib@@QEAAXAEBVStringList@3@@Z
?removeUnsupportedProperties@Tag@ASF@TagLib@@QEAAXAEBVStringList@3@@Z
?removeUnsupportedProperties@Tag@ID3v2@TagLib@@QEAAXAEBVStringList@3@@Z
?removeUnsupportedProperties@Tag@MP4@TagLib@@QEAAXAEBVStringList@3@@Z
?removeUnsupportedProperties@Tag@TagLib@@QEAAXAEBVStringList@2@@Z
?rend@ByteVector@TagLib@@QEAA?AV?$reverse_iterator@V?$_Vector_iterator@V?$_Vector_val@U?$_Simple_types@D@std@@@std@@@std@@@std@@XZ
?rend@ByteVector@TagLib@@QEBA?AV?$reverse_iterator@V?$_Vector_const_iterator@V?$_Vector_val@U?$_Simple_types@D@std@@@std@@@std@@@std@@XZ
?render@Attribute@ASF@TagLib@@AEBA?AVByteVector@3@AEBVString@3@H@Z
?render@Footer@APE@TagLib@@IEBA?AVByteVector@3@_N@Z
?render@Footer@ID3v2@TagLib@@QEBA?AVByteVector@3@PEBVHeader@23@@Z
?render@Frame@ID3v2@TagLib@@QEBA?AVByteVector@3@XZ
?render@Header@Frame@ID3v2@TagLib@@QEBA?AVByteVector@4@XZ
?render@Header@ID3v2@TagLib@@QEBA?AVByteVector@3@XZ
?render@Item@APE@TagLib@@QEBA?AVByteVector@3@XZ
?render@Page@Ogg@TagLib@@QEBA?AVByteVector@3@XZ
?render@PageHeader@Ogg@TagLib@@QEBA?AVByteVector@3@XZ
?render@Picture@ASF@TagLib@@QEBA?AVByteVector@3@XZ
?render@Picture@FLAC@TagLib@@UEBA?AVByteVector@3@XZ
?render@StringHandler@ID3v1@TagLib@@UEBA?AVByteVector@3@AEBVString@3@@Z
?render@StringHandler@Info@RIFF@TagLib@@UEBA?AVByteVector@4@AEBVString@4@@Z
?render@Tag@APE@TagLib@@QEBA?AVByteVector@3@XZ
?render@Tag@ID3v1@TagLib@@QEBA?AVByteVector@3@XZ
?render@Tag@ID3v2@TagLib@@QEBA?AVByteVector@3@H@Z
?render@Tag@ID3v2@TagLib@@QEBA?AVByteVector@3@W4Version@23@@Z
?render@Tag@ID3v2@TagLib@@QEBA?AVByteVector@3@XZ
?render@Tag@Info@RIFF@TagLib@@QEBA?AVByteVector@4@XZ
?render@UnknownMetadataBlock@FLAC@TagLib@@UEBA?AVByteVector@3@XZ
?render@XiphComment@Ogg@TagLib@@QEBA?AVByteVector@3@XZ
?render@XiphComment@Ogg@TagLib@@QEBA?AVByteVector@3@_N@Z
?renderAtom@Tag@MP4@TagLib@@AEBA?AVByteVector@3@AEBV43@0@Z
?renderBool@Tag@MP4@TagLib@@AEBA?AVByteVector@3@AEBV43@AEBVItem@23@@Z
?renderByte@Tag@MP4@TagLib@@AEBA?AVByteVector@3@AEBV43@AEBVItem@23@@Z
?renderCovr@Tag@MP4@TagLib@@AEBA?AVByteVector@3@AEBV43@AEBVItem@23@@Z
?renderData@Tag@MP4@TagLib@@AEBA?AVByteVector@3@AEBV43@HAEBVByteVectorList@3@@Z
?renderFields@AttachedPictureFrame@ID3v2@TagLib@@MEBA?AVByteVector@3@XZ
?renderFields@ChapterFrame@ID3v2@TagLib@@MEBA?AVByteVector@3@XZ
?renderFields@CommentsFrame@ID3v2@TagLib@@MEBA?AVByteVector@3@XZ
?renderFields@EventTimingCodesFrame@ID3v2@TagLib@@MEBA?AVByteVector@3@XZ
?renderFields@GeneralEncapsulatedObjectFrame@ID3v2@TagLib@@MEBA?AVByteVector@3@XZ
?renderFields@OwnershipFrame@ID3v2@TagLib@@MEBA?AVByteVector@3@XZ
?renderFields@PodcastFrame@ID3v2@TagLib@@MEBA?AVByteVector@3@XZ
?renderFields@PopularimeterFrame@ID3v2@TagLib@@MEBA?AVByteVector@3@XZ
?renderFields@PrivateFrame@ID3v2@TagLib@@MEBA?AVByteVector@3@XZ
?renderFields@RelativeVolumeFrame@ID3v2@TagLib@@MEBA?AVByteVector@3@XZ
?renderFields@SynchronizedLyricsFrame@ID3v2@TagLib@@MEBA?AVByteVector@3@XZ
?renderFields@TableOfContentsFrame@ID3v2@TagLib@@MEBA?AVByteVector@3@XZ
?renderFields@TextIdentificationFrame@ID3v2@TagLib@@MEBA?AVByteVector@3@XZ
?renderFields@UniqueFileIdentifierFrame@ID3v2@TagLib@@MEBA?AVByteVector@3@XZ
?renderFields@UnknownFrame@ID3v2@TagLib@@MEBA?AVByteVector@3@XZ
?renderFields@UnsynchronizedLyricsFrame@ID3v2@TagLib@@MEBA?AVByteVector@3@XZ
?renderFields@UrlLinkFrame@ID3v2@TagLib@@MEBA?AVByteVector@3@XZ
?renderFields@UserUrlLinkFrame@ID3v2@TagLib@@MEBA?AVByteVector@3@XZ
?renderFooter@Footer@APE@TagLib@@QEBA?AVByteVector@3@XZ
?renderFreeForm@Tag@MP4@TagLib@@AEBA?AVByteVector@3@AEBVString@3@AEBVItem@23@@Z
?renderHeader@Footer@APE@TagLib@@QEBA?AVByteVector@3@XZ
?renderInt@Tag@MP4@TagLib@@AEBA?AVByteVector@3@AEBV43@AEBVItem@23@@Z
?renderIntPair@Tag@MP4@TagLib@@AEBA?AVByteVector@3@AEBV43@AEBVItem@23@@Z
?renderIntPairNoTrailing@Tag@MP4@TagLib@@AEBA?AVByteVector@3@AEBV43@AEBVItem@23@@Z
?renderLongLong@Tag@MP4@TagLib@@AEBA?AVByteVector@3@AEBV43@AEBVItem@23@@Z
?renderText@Tag@MP4@TagLib@@AEBA?AVByteVector@3@AEBV43@AEBVItem@23@H@Z
?renderUInt@Tag@MP4@TagLib@@AEBA?AVByteVector@3@AEBV43@AEBVItem@23@@Z
?replace@ByteVector@TagLib@@QEAAAEAV12@AEBV12@0@Z
?replace@ByteVector@TagLib@@QEAAAEAV12@DD@Z
?replace@PropertyMap@TagLib@@QEAA_NAEBVString@2@AEBVStringList@2@@Z
?resize@ByteVector@TagLib@@QEAAAEAV12@ID@Z
?restartPosition@Properties@XM@TagLib@@QEBAGXZ
?revisionNumber@Header@ID3v2@TagLib@@QEBAIXZ
?rfind@ByteVector@TagLib@@QEBAHAEBV12@IH@Z
?rfind@File@TagLib@@QEAAJAEBVByteVector@2@J0@Z
?rfind@String@TagLib@@QEBAHAEBV12@H@Z
?riffSize@File@RIFF@TagLib@@IEBAIXZ
?sampleCount@Properties@IT@TagLib@@QEBAGXZ
?sampleCount@Properties@S3M@TagLib@@QEBAGXZ
?sampleCount@Properties@XM@TagLib@@QEBAIXZ
?sampleFrames@Properties@AIFF@RIFF@TagLib@@QEBAIXZ
?sampleFrames@Properties@APE@TagLib@@QEBAIXZ
?sampleFrames@Properties@FLAC@TagLib@@QEBA_KXZ
?sampleFrames@Properties@MPC@TagLib@@QEBAIXZ
?sampleFrames@Properties@TrueAudio@TagLib@@QEBAIXZ
?sampleFrames@Properties@WAV@RIFF@TagLib@@QEBAIXZ
?sampleFrames@Properties@WavPack@TagLib@@QEBAIXZ
?sampleRate@Header@MPEG@TagLib@@QEBAHXZ
?sampleRate@Properties@AIFF@RIFF@TagLib@@UEBAHXZ
?sampleRate@Properties@APE@TagLib@@UEBAHXZ
?sampleRate@Properties@ASF@TagLib@@UEBAHXZ
?sampleRate@Properties@FLAC@TagLib@@UEBAHXZ
?sampleRate@Properties@IT@TagLib@@UEBAHXZ
?sampleRate@Properties@MP4@TagLib@@UEBAHXZ
?sampleRate@Properties@MPC@TagLib@@UEBAHXZ
?sampleRate@Properties@MPEG@TagLib@@UEBAHXZ
?sampleRate@Properties@Mod@TagLib@@UEBAHXZ
?sampleRate@Properties@Opus@Ogg@TagLib@@UEBAHXZ
?sampleRate@Properties@S3M@TagLib@@UEBAHXZ
?sampleRate@Properties@Speex@Ogg@TagLib@@UEBAHXZ
?sampleRate@Properties@TrueAudio@TagLib@@UEBAHXZ
?sampleRate@Properties@Vorbis@TagLib@@UEBAHXZ
?sampleRate@Properties@WAV@RIFF@TagLib@@UEBAHXZ
?sampleRate@Properties@WavPack@TagLib@@UEBAHXZ
?sampleRate@Properties@XM@TagLib@@UEBAHXZ
?sampleWidth@Properties@AIFF@RIFF@TagLib@@QEBAHXZ
?sampleWidth@Properties@FLAC@TagLib@@QEBAHXZ
?sampleWidth@Properties@WAV@RIFF@TagLib@@QEBAHXZ
?samplesPerFrame@Header@MPEG@TagLib@@QEBAHXZ
?save@File@AIFF@RIFF@TagLib@@QEAA_NW4Version@ID3v2@4@@Z
?save@File@AIFF@RIFF@TagLib@@UEAA_NXZ
?save@File@APE@TagLib@@UEAA_NXZ
?save@File@ASF@TagLib@@UEAA_NXZ
?save@File@FLAC@Ogg@TagLib@@UEAA_NXZ
?save@File@FLAC@TagLib@@UEAA_NXZ
?save@File@IT@TagLib@@UEAA_NXZ
?save@File@MP4@TagLib@@UEAA_NXZ
?save@File@MPC@TagLib@@UEAA_NXZ
?save@File@MPEG@TagLib@@QEAA_NH@Z
?save@File@MPEG@TagLib@@QEAA_NHW4StripTags@13@W4Version@ID3v2@3@W4DuplicateTags@13@@Z
?save@File@MPEG@TagLib@@QEAA_NH_N@Z
?save@File@MPEG@TagLib@@QEAA_NH_NH0@Z
?save@File@MPEG@TagLib@@QEAA_NH_NH@Z
?save@File@MPEG@TagLib@@UEAA_NXZ
?save@File@Mod@TagLib@@UEAA_NXZ
?save@File@Ogg@TagLib@@UEAA_NXZ
?save@File@Opus@Ogg@TagLib@@UEAA_NXZ
?save@File@S3M@TagLib@@UEAA_NXZ
?save@File@Speex@Ogg@TagLib@@UEAA_NXZ
?save@File@TrueAudio@TagLib@@UEAA_NXZ
?save@File@Vorbis@TagLib@@UEAA_NXZ
?save@File@WAV@RIFF@TagLib@@QEAA_NW4TagTypes@1234@W4StripTags@14@W4Version@ID3v2@4@@Z
?save@File@WAV@RIFF@TagLib@@QEAA_NW4TagTypes@1234@_NH@Z
?save@File@WAV@RIFF@TagLib@@UEAA_NXZ
?save@File@WavPack@TagLib@@UEAA_NXZ
?save@File@XM@TagLib@@UEAA_NXZ
?save@FileRef@TagLib@@QEAA_NXZ
?save@Tag@MP4@TagLib@@QEAA_NXZ
?saveExisting@Tag@MP4@TagLib@@AEAAXVByteVector@3@AEBV?$List@PEAVAtom@MP4@TagLib@@@3@@Z
?saveNew@Tag@MP4@TagLib@@AEAAXVByteVector@3@@Z
?scan@File@FLAC@Ogg@TagLib@@AEAAXXZ
?scan@File@FLAC@TagLib@@AEAAXXZ
?seek@ByteVectorStream@TagLib@@UEAAXJW4Position@IOStream@2@@Z
?seek@File@TagLib@@QEAAXJW4Position@12@@Z
?seek@FileStream@TagLib@@UEAAXJW4Position@IOStream@2@@Z
?seekFinalIndex@Properties@WavPack@TagLib@@AEAAIPEAVFile@23@J@Z
?seller@OwnershipFrame@ID3v2@TagLib@@QEBA?AVString@3@XZ
?setAbsoluteGranularPosition@PageHeader@Ogg@TagLib@@QEAAX_J@Z
?setAlbum@Tag@APE@TagLib@@UEAAXAEBVString@3@@Z
?setAlbum@Tag@ASF@TagLib@@UEAAXAEBVString@3@@Z
?setAlbum@Tag@ID3v1@TagLib@@UEAAXAEBVString@3@@Z
?setAlbum@Tag@ID3v2@TagLib@@UEAAXAEBVString@3@@Z
?setAlbum@Tag@Info@RIFF@TagLib@@UEAAXAEBVString@4@@Z
?setAlbum@Tag@MP4@TagLib@@UEAAXAEBVString@3@@Z
?setAlbum@Tag@Mod@TagLib@@UEAAXAEBVString@3@@Z
?setAlbum@XiphComment@Ogg@TagLib@@UEAAXAEBVString@3@@Z
?setArtist@Tag@APE@TagLib@@UEAAXAEBVString@3@@Z
?setArtist@Tag@ASF@TagLib@@UEAAXAEBVString@3@@Z
?setArtist@Tag@ID3v1@TagLib@@UEAAXAEBVString@3@@Z
?setArtist@Tag@ID3v2@TagLib@@UEAAXAEBVString@3@@Z
?setArtist@Tag@Info@RIFF@TagLib@@UEAAXAEBVString@4@@Z
?setArtist@Tag@MP4@TagLib@@UEAAXAEBVString@3@@Z
?setArtist@Tag@Mod@TagLib@@UEAAXAEBVString@3@@Z
?setArtist@XiphComment@Ogg@TagLib@@UEAAXAEBVString@3@@Z
?setAtomDataType@Item@MP4@TagLib@@QEAAXW4AtomDataType@23@@Z
?setAttribute@Tag@ASF@TagLib@@QEAAXAEBVString@3@AEBV?$List@VAttribute@ASF@TagLib@@@3@@Z
?setAttribute@Tag@ASF@TagLib@@QEAAXAEBVString@3@AEBVAttribute@23@@Z
?setAutoDelete@?$List@VByteVector@TagLib@@@TagLib@@QEAAX_N@Z
?setAutoDelete@?$List@VString@TagLib@@@TagLib@@QEAAX_N@Z
?setBinaryData@Item@APE@TagLib@@QEAAXAEBVByteVector@3@@Z
?setBitrate@Properties@ASF@TagLib@@QEAAXH@Z
?setBitsPerSample@Properties@ASF@TagLib@@QEAAXH@Z
?setBpmSpeed@Properties@IT@TagLib@@QEAAXE@Z
?setBpmSpeed@Properties@S3M@TagLib@@QEAAXE@Z
?setBpmSpeed@Properties@XM@TagLib@@QEAAXG@Z
?setChannelType@RelativeVolumeFrame@ID3v2@TagLib@@QEAAXW4ChannelType@123@@Z
?setChannels@Properties@ASF@TagLib@@QEAAXH@Z
?setChannels@Properties@IT@TagLib@@QEAAXH@Z
?setChannels@Properties@Mod@TagLib@@QEAAXH@Z
?setChannels@Properties@S3M@TagLib@@QEAAXH@Z
?setChannels@Properties@XM@TagLib@@QEAAXH@Z
?setChildElements@TableOfContentsFrame@ID3v2@TagLib@@QEAAXAEBVByteVectorList@3@@Z
?setChunkData@File@RIFF@TagLib@@IEAAXAEBVByteVector@3@0@Z
?setChunkData@File@RIFF@TagLib@@IEAAXAEBVByteVector@3@0_N@Z
?setChunkData@File@RIFF@TagLib@@IEAAXIAEBVByteVector@3@@Z
?setCode@UnknownMetadataBlock@FLAC@TagLib@@QEAAXH@Z
?setCodec@Properties@ASF@TagLib@@QEAAXH@Z
?setCodecDescription@Properties@ASF@TagLib@@QEAAXAEBVString@3@@Z
?setCodecName@Properties@ASF@TagLib@@QEAAXAEBVString@3@@Z
?setColorDepth@Picture@FLAC@TagLib@@QEAAXH@Z
?setComment@Tag@APE@TagLib@@UEAAXAEBVString@3@@Z
?setComment@Tag@ASF@TagLib@@UEAAXAEBVString@3@@Z
?setComment@Tag@ID3v1@TagLib@@UEAAXAEBVString@3@@Z
?setComment@Tag@ID3v2@TagLib@@UEAAXAEBVString@3@@Z
?setComment@Tag@Info@RIFF@TagLib@@UEAAXAEBVString@4@@Z
?setComment@Tag@MP4@TagLib@@UEAAXAEBVString@3@@Z
?setComment@Tag@Mod@TagLib@@UEAAXAEBVString@3@@Z
?setComment@XiphComment@Ogg@TagLib@@UEAAXAEBVString@3@@Z
?setCompatibleVersion@Properties@IT@TagLib@@QEAAXG@Z
?setCopyright@Tag@ASF@TagLib@@UEAAXAEBVString@3@@Z
?setCounter@PopularimeterFrame@ID3v2@TagLib@@QEAAXI@Z
?setData@ByteVector@TagLib@@QEAAAEAV12@PEBD@Z
?setData@ByteVector@TagLib@@QEAAAEAV12@PEBDI@Z
?setData@ExtendedHeader@ID3v2@TagLib@@QEAAXAEBVByteVector@3@@Z
?setData@Footer@APE@TagLib@@QEAAXAEBVByteVector@3@@Z
?setData@Frame@ID3v2@TagLib@@QEAAXAEBVByteVector@3@@Z
?setData@Header@Frame@ID3v2@TagLib@@QEAAXAEBVByteVector@4@I@Z
?setData@Header@Frame@ID3v2@TagLib@@QEAAXAEBVByteVector@4@_N@Z
?setData@Header@ID3v2@TagLib@@QEAAXAEBVByteVector@3@@Z
?setData@Picture@FLAC@TagLib@@QEAAXAEBVByteVector@3@@Z
?setData@PrivateFrame@ID3v2@TagLib@@QEAAXAEBVByteVector@3@@Z
?setData@Tag@APE@TagLib@@QEAAXAEBVString@3@AEBVByteVector@3@@Z
?setData@UnknownMetadataBlock@FLAC@TagLib@@QEAAXAEBVByteVector@3@@Z
?setDatePurchased@OwnershipFrame@ID3v2@TagLib@@QEAAXAEBVString@3@@Z
?setDebugListener@TagLib@@YAXPEAVDebugListener@1@@Z
?setDefaultTextEncoding@FrameFactory@ID3v2@TagLib@@QEAAXW4Type@String@3@@Z
?setDescription@AttachedPictureFrame@ID3v2@TagLib@@QEAAXAEBVString@3@@Z
?setDescription@CommentsFrame@ID3v2@TagLib@@QEAAXAEBVString@3@@Z
?setDescription@GeneralEncapsulatedObjectFrame@ID3v2@TagLib@@QEAAXAEBVString@3@@Z
?setDescription@Picture@ASF@TagLib@@QEAAXAEBVString@3@@Z
?setDescription@Picture@FLAC@TagLib@@QEAAXAEBVString@3@@Z
?setDescription@SynchronizedLyricsFrame@ID3v2@TagLib@@QEAAXAEBVString@3@@Z
?setDescription@UnsynchronizedLyricsFrame@ID3v2@TagLib@@QEAAXAEBVString@3@@Z
?setDescription@UserTextIdentificationFrame@ID3v2@TagLib@@QEAAXAEBVString@3@@Z
?setDescription@UserUrlLinkFrame@ID3v2@TagLib@@QEAAXAEBVString@3@@Z
?setElementID@ChapterFrame@ID3v2@TagLib@@QEAAXAEBVByteVector@3@@Z
?setElementID@TableOfContentsFrame@ID3v2@TagLib@@QEAAXAEBVByteVector@3@@Z
?setEmail@PopularimeterFrame@ID3v2@TagLib@@QEAAXAEBVString@3@@Z
?setEncrypted@Properties@ASF@TagLib@@QEAAX_N@Z
?setEndOffset@ChapterFrame@ID3v2@TagLib@@QEAAXAEBI@Z
?setEndTime@ChapterFrame@ID3v2@TagLib@@QEAAXAEBI@Z
?setFieldText@Tag@Info@RIFF@TagLib@@QEAAXAEBVByteVector@4@AEBVString@4@@Z
?setFileFormatVersion@Properties@S3M@TagLib@@QEAAXG@Z
?setFileName@GeneralEncapsulatedObjectFrame@ID3v2@TagLib@@QEAAXAEBVString@3@@Z
?setFirstPacketContinued@PageHeader@Ogg@TagLib@@QEAAX_N@Z
?setFirstPacketIndex@Page@Ogg@TagLib@@QEAAXH@Z
?setFirstPageOfStream@PageHeader@Ogg@TagLib@@QEAAX_N@Z
?setFlags@Properties@IT@TagLib@@QEAAXG@Z
?setFlags@Properties@S3M@TagLib@@QEAAXG@Z
?setFlags@Properties@XM@TagLib@@QEAAXG@Z
?setFrameID@Header@Frame@ID3v2@TagLib@@QEAAXAEBVByteVector@4@@Z
?setFrameSize@Header@Frame@ID3v2@TagLib@@QEAAXI@Z
?setGenre@Tag@APE@TagLib@@UEAAXAEBVString@3@@Z
?setGenre@Tag@ASF@TagLib@@UEAAXAEBVString@3@@Z
?setGenre@Tag@ID3v1@TagLib@@UEAAXAEBVString@3@@Z
?setGenre@Tag@ID3v2@TagLib@@UEAAXAEBVString@3@@Z
?setGenre@Tag@Info@RIFF@TagLib@@UEAAXAEBVString@4@@Z
?setGenre@Tag@MP4@TagLib@@UEAAXAEBVString@3@@Z
?setGenre@Tag@Mod@TagLib@@UEAAXAEBVString@3@@Z
?setGenre@XiphComment@Ogg@TagLib@@UEAAXAEBVString@3@@Z
?setGenreNumber@Tag@ID3v1@TagLib@@QEAAXI@Z
?setGlobalVolume@Properties@IT@TagLib@@QEAAXE@Z
?setGlobalVolume@Properties@S3M@TagLib@@QEAAXE@Z
?setHeader@Frame@ID3v2@TagLib@@IEAAXPEAVHeader@123@_N@Z
?setHeaderPresent@Footer@APE@TagLib@@QEBAX_N@Z
?setHeight@Picture@FLAC@TagLib@@QEAAXH@Z
?setID3v2FrameFactory@File@FLAC@TagLib@@QEAAXPEBVFrameFactory@ID3v2@3@@Z
?setID3v2FrameFactory@File@MPEG@TagLib@@QEAAXPEBVFrameFactory@ID3v2@3@@Z
?setID3v2FrameFactory@File@TrueAudio@TagLib@@QEAAXPEBVFrameFactory@ID3v2@3@@Z
?setIdentification@RelativeVolumeFrame@ID3v2@TagLib@@QEAAXAEBVString@3@@Z
?setIdentifier@UniqueFileIdentifierFrame@ID3v2@TagLib@@QEAAXAEBVByteVector@3@@Z
?setInstrumentCount@Properties@IT@TagLib@@QEAAXG@Z
?setInstrumentCount@Properties@Mod@TagLib@@QEAAXI@Z
?setInstrumentCount@Properties@XM@TagLib@@QEAAXG@Z
?setIsOrdered@TableOfContentsFrame@ID3v2@TagLib@@QEAAXAEB_N@Z
?setIsTopLevel@TableOfContentsFrame@ID3v2@TagLib@@QEAAXAEB_N@Z
?setItem@Tag@APE@TagLib@@QEAAXAEBVString@3@AEBVItem@23@@Z
?setItem@Tag@MP4@TagLib@@QEAAXAEBVString@3@AEBVItem@23@@Z
?setItemCount@Footer@APE@TagLib@@QEAAXI@Z
?setKey@Item@APE@TagLib@@QEAAXAEBVString@3@@Z
?setLanguage@Attribute@ASF@TagLib@@QEAAXH@Z
?setLanguage@CommentsFrame@ID3v2@TagLib@@QEAAXAEBVByteVector@3@@Z
?setLanguage@SynchronizedLyricsFrame@ID3v2@TagLib@@QEAAXAEBVByteVector@3@@Z
?setLanguage@UnsynchronizedLyricsFrame@ID3v2@TagLib@@QEAAXAEBVByteVector@3@@Z
?setLastPacketCompleted@PageHeader@Ogg@TagLib@@QEAAX_N@Z
?setLastPageOfStream@PageHeader@Ogg@TagLib@@QEAAX_N@Z
?setLatin1StringHandler@Tag@ID3v2@TagLib@@SAXPEBVLatin1StringHandler@23@@Z
?setLength@Properties@ASF@TagLib@@QEAAXH@Z
?setLengthInMilliseconds@Properties@ASF@TagLib@@QEAAXH@Z
?setLengthInPatterns@Properties@IT@TagLib@@QEAAXG@Z
?setLengthInPatterns@Properties@Mod@TagLib@@QEAAXE@Z
?setLengthInPatterns@Properties@S3M@TagLib@@QEAAXG@Z
?setLengthInPatterns@Properties@XM@TagLib@@QEAAXG@Z
?setMajorVersion@Header@ID3v2@TagLib@@QEAAXI@Z
?setMasterVolume@Properties@S3M@TagLib@@QEAAXE@Z
?setMimeType@AttachedPictureFrame@ID3v2@TagLib@@QEAAXAEBVString@3@@Z
?setMimeType@GeneralEncapsulatedObjectFrame@ID3v2@TagLib@@QEAAXAEBVString@3@@Z
?setMimeType@Picture@ASF@TagLib@@QEAAXAEBVString@3@@Z
?setMimeType@Picture@FLAC@TagLib@@QEAAXAEBVString@3@@Z
?setMixVolume@Properties@IT@TagLib@@QEAAXE@Z
?setNumColors@Picture@FLAC@TagLib@@QEAAXH@Z
?setObject@GeneralEncapsulatedObjectFrame@ID3v2@TagLib@@QEAAXAEBVByteVector@3@@Z
?setOwner@PrivateFrame@ID3v2@TagLib@@QEAAXAEBVString@3@@Z
?setOwner@UniqueFileIdentifierFrame@ID3v2@TagLib@@QEAAXAEBVString@3@@Z
?setPacket@File@Ogg@TagLib@@QEAAXIAEBVByteVector@3@@Z
?setPacketSizes@PageHeader@Ogg@TagLib@@QEAAXAEBV?$List@H@3@@Z
?setPageSequenceNumber@Page@Ogg@TagLib@@QEAAXH@Z
?setPageSequenceNumber@PageHeader@Ogg@TagLib@@QEAAXH@Z
?setPanningSeparation@Properties@IT@TagLib@@QEAAXE@Z
?setPatternCount@Properties@IT@TagLib@@QEAAXG@Z
?setPatternCount@Properties@S3M@TagLib@@QEAAXG@Z
?setPatternCount@Properties@XM@TagLib@@QEAAXG@Z
?setPeakVolume@RelativeVolumeFrame@ID3v2@TagLib@@QEAAXAEBUPeakVolume@123@@Z
?setPeakVolume@RelativeVolumeFrame@ID3v2@TagLib@@QEAAXAEBUPeakVolume@123@W4ChannelType@123@@Z
?setPicture@AttachedPictureFrame@ID3v2@TagLib@@QEAAXAEBVByteVector@3@@Z
?setPicture@Picture@ASF@TagLib@@QEAAXAEBVByteVector@3@@Z
?setPitchWheelDepth@Properties@IT@TagLib@@QEAAXE@Z
?setPricePaid@OwnershipFrame@ID3v2@TagLib@@QEAAXAEBVString@3@@Z
?setProperties@File@AIFF@RIFF@TagLib@@QEAA?AVPropertyMap@4@AEBV54@@Z
?setProperties@File@APE@TagLib@@QEAA?AVPropertyMap@3@AEBV43@@Z
?setProperties@File@ASF@TagLib@@QEAA?AVPropertyMap@3@AEBV43@@Z
?setProperties@File@FLAC@Ogg@TagLib@@QEAA?AVPropertyMap@4@AEBV54@@Z
?setProperties@File@FLAC@TagLib@@QEAA?AVPropertyMap@3@AEBV43@@Z
?setProperties@File@IT@TagLib@@QEAA?AVPropertyMap@3@AEBV43@@Z
?setProperties@File@MP4@TagLib@@QEAA?AVPropertyMap@3@AEBV43@@Z
?setProperties@File@MPC@TagLib@@QEAA?AVPropertyMap@3@AEBV43@@Z
?setProperties@File@MPEG@TagLib@@QEAA?AVPropertyMap@3@AEBV43@@Z
?setProperties@File@Mod@TagLib@@QEAA?AVPropertyMap@3@AEBV43@@Z
?setProperties@File@Opus@Ogg@TagLib@@QEAA?AVPropertyMap@4@AEBV54@@Z
?setProperties@File@S3M@TagLib@@QEAA?AVPropertyMap@3@AEBV43@@Z
?setProperties@File@Speex@Ogg@TagLib@@QEAA?AVPropertyMap@4@AEBV54@@Z
?setProperties@File@TagLib@@QEAA?AVPropertyMap@2@AEBV32@@Z
?setProperties@File@TrueAudio@TagLib@@QEAA?AVPropertyMap@3@AEBV43@@Z
?setProperties@File@Vorbis@TagLib@@QEAA?AVPropertyMap@3@AEBV43@@Z
?setProperties@File@WAV@RIFF@TagLib@@QEAA?AVPropertyMap@4@AEBV54@@Z
?setProperties@File@WavPack@TagLib@@QEAA?AVPropertyMap@3@AEBV43@@Z
?setProperties@File@XM@TagLib@@QEAA?AVPropertyMap@3@AEBV43@@Z
?setProperties@Tag@APE@TagLib@@QEAA?AVPropertyMap@3@AEBV43@@Z
?setProperties@Tag@ASF@TagLib@@QEAA?AVPropertyMap@3@AEBV43@@Z
?setProperties@Tag@ID3v2@TagLib@@QEAA?AVPropertyMap@3@AEBV43@@Z
?setProperties@Tag@MP4@TagLib@@QEAA?AVPropertyMap@3@AEBV43@@Z
?setProperties@Tag@Mod@TagLib@@QEAA?AVPropertyMap@3@AEBV43@@Z
?setProperties@Tag@TagLib@@QEAA?AVPropertyMap@2@AEBV32@@Z
?setProperties@XiphComment@Ogg@TagLib@@QEAA?AVPropertyMap@3@AEBV43@@Z
?setRating@PopularimeterFrame@ID3v2@TagLib@@QEAAXH@Z
?setRating@Tag@ASF@TagLib@@UEAAXAEBVString@3@@Z
?setReadOnly@Item@APE@TagLib@@QEAAX_N@Z
?setRestartPosition@Properties@XM@TagLib@@QEAAXG@Z
?setSampleCount@Properties@IT@TagLib@@QEAAXG@Z
?setSampleCount@Properties@S3M@TagLib@@QEAAXG@Z
?setSampleCount@Properties@XM@TagLib@@QEAAXI@Z
?setSampleRate@Properties@ASF@TagLib@@QEAAXH@Z
?setSeller@OwnershipFrame@ID3v2@TagLib@@QEAAXAEBVString@3@@Z
?setSpecial@Properties@IT@TagLib@@QEAAXG@Z
?setStartOffset@ChapterFrame@ID3v2@TagLib@@QEAAXAEBI@Z
?setStartTime@ChapterFrame@ID3v2@TagLib@@QEAAXAEBI@Z
?setStereo@Properties@S3M@TagLib@@QEAAX_N@Z
?setStream@Attribute@ASF@TagLib@@QEAAXH@Z
?setStreamSerialNumber@PageHeader@Ogg@TagLib@@QEAAXI@Z
?setStringHandler@Tag@ID3v1@TagLib@@SAXPEBVStringHandler@23@@Z
?setStringHandler@Tag@Info@RIFF@TagLib@@SAXPEBVStringHandler@234@@Z
?setSynchedEvents@EventTimingCodesFrame@ID3v2@TagLib@@QEAAXAEBV?$List@USynchedEvent@EventTimingCodesFrame@ID3v2@TagLib@@@3@@Z
?setSynchedText@SynchronizedLyricsFrame@ID3v2@TagLib@@QEAAXAEBV?$List@USynchedText@SynchronizedLyricsFrame@ID3v2@TagLib@@@3@@Z
?setTagAlterPreservation@Header@Frame@ID3v2@TagLib@@QEAAX_N@Z
?setTagSize@Footer@APE@TagLib@@QEAAXI@Z
?setTagSize@Header@ID3v2@TagLib@@QEAAXI@Z
?setTempo@Properties@IT@TagLib@@QEAAXE@Z
?setTempo@Properties@S3M@TagLib@@QEAAXE@Z
?setTempo@Properties@XM@TagLib@@QEAAXG@Z
?setText@CommentsFrame@ID3v2@TagLib@@UEAAXAEBVString@3@@Z
?setText@Frame@ID3v2@TagLib@@UEAAXAEBVString@3@@Z
?setText@TextIdentificationFrame@ID3v2@TagLib@@QEAAXAEBVStringList@3@@Z
?setText@TextIdentificationFrame@ID3v2@TagLib@@UEAAXAEBVString@3@@Z
?setText@UnsynchronizedLyricsFrame@ID3v2@TagLib@@UEAAXAEBVString@3@@Z
?setText@UrlLinkFrame@ID3v2@TagLib@@UEAAXAEBVString@3@@Z
?setText@UserTextIdentificationFrame@ID3v2@TagLib@@QEAAXAEBVStringList@3@@Z
?setText@UserTextIdentificationFrame@ID3v2@TagLib@@UEAAXAEBVString@3@@Z
?setTextEncoding@AttachedPictureFrame@ID3v2@TagLib@@QEAAXW4Type@String@3@@Z
?setTextEncoding@CommentsFrame@ID3v2@TagLib@@QEAAXW4Type@String@3@@Z
?setTextEncoding@GeneralEncapsulatedObjectFrame@ID3v2@TagLib@@QEAAXW4Type@String@3@@Z
?setTextEncoding@OwnershipFrame@ID3v2@TagLib@@QEAAXW4Type@String@3@@Z
?setTextEncoding@SynchronizedLyricsFrame@ID3v2@TagLib@@QEAAXW4Type@String@3@@Z
?setTextEncoding@TextIdentificationFrame@ID3v2@TagLib@@QEAAXW4Type@String@3@@Z
?setTextEncoding@UnsynchronizedLyricsFrame@ID3v2@TagLib@@QEAAXW4Type@String@3@@Z
?setTextEncoding@UserUrlLinkFrame@ID3v2@TagLib@@QEAAXW4Type@String@3@@Z
?setTextFrame@Tag@ID3v2@TagLib@@IEAAXAEBVByteVector@3@AEBVString@3@@Z
?setTextItem@Tag@MP4@TagLib@@IEAAXAEBVString@3@0@Z
?setTimestampFormat@EventTimingCodesFrame@ID3v2@TagLib@@QEAAXW4TimestampFormat@123@@Z
?setTimestampFormat@SynchronizedLyricsFrame@ID3v2@TagLib@@QEAAXW4TimestampFormat@123@@Z
?setTitle@Tag@APE@TagLib@@UEAAXAEBVString@3@@Z
?setTitle@Tag@ASF@TagLib@@UEAAXAEBVString@3@@Z
?setTitle@Tag@ID3v1@TagLib@@UEAAXAEBVString@3@@Z
?setTitle@Tag@ID3v2@TagLib@@UEAAXAEBVString@3@@Z
?setTitle@Tag@Info@RIFF@TagLib@@UEAAXAEBVString@4@@Z
?setTitle@Tag@MP4@TagLib@@UEAAXAEBVString@3@@Z
?setTitle@Tag@Mod@TagLib@@UEAAXAEBVString@3@@Z
?setTitle@XiphComment@Ogg@TagLib@@UEAAXAEBVString@3@@Z
?setTrack@Tag@APE@TagLib@@UEAAXI@Z
?setTrack@Tag@ASF@TagLib@@UEAAXI@Z
?setTrack@Tag@ID3v1@TagLib@@UEAAXI@Z
?setTrack@Tag@ID3v2@TagLib@@UEAAXI@Z
?setTrack@Tag@Info@RIFF@TagLib@@UEAAXI@Z
?setTrack@Tag@MP4@TagLib@@UEAAXI@Z
?setTrack@Tag@Mod@TagLib@@UEAAXI@Z
?setTrack@XiphComment@Ogg@TagLib@@UEAAXI@Z
?setTrackerName@Tag@Mod@TagLib@@QEAAXAEBVString@3@@Z
?setTrackerVersion@Properties@S3M@TagLib@@QEAAXG@Z
?setType@AttachedPictureFrame@ID3v2@TagLib@@QEAAXW4Type@123@@Z
?setType@Item@APE@TagLib@@QEAAXW4ItemTypes@123@@Z
?setType@Picture@ASF@TagLib@@QEAAXAEBW4Type@123@@Z
?setType@Picture@FLAC@TagLib@@QEAAXW4Type@123@@Z
?setType@SynchronizedLyricsFrame@ID3v2@TagLib@@QEAAXW4Type@123@@Z
?setUrl@UrlLinkFrame@ID3v2@TagLib@@UEAAXAEBVString@3@@Z
?setValid@File@TagLib@@IEAAX_N@Z
?setValue@Item@APE@TagLib@@QEAAXAEBVString@3@@Z
?setValues@Item@APE@TagLib@@QEAAXAEBVStringList@3@@Z
?setVersion@Header@Frame@ID3v2@TagLib@@QEAAXI@Z
?setVersion@Properties@IT@TagLib@@QEAAXG@Z
?setVersion@Properties@XM@TagLib@@QEAAXG@Z
?setVolumeAdjustment@RelativeVolumeFrame@ID3v2@TagLib@@QEAAXM@Z
?setVolumeAdjustment@RelativeVolumeFrame@ID3v2@TagLib@@QEAAXMW4ChannelType@123@@Z
?setVolumeAdjustmentIndex@RelativeVolumeFrame@ID3v2@TagLib@@QEAAXF@Z
?setVolumeAdjustmentIndex@RelativeVolumeFrame@ID3v2@TagLib@@QEAAXFW4ChannelType@123@@Z
?setWidth@Picture@FLAC@TagLib@@QEAAXH@Z
?setYear@Tag@APE@TagLib@@UEAAXI@Z
?setYear@Tag@ASF@TagLib@@UEAAXI@Z
?setYear@Tag@ID3v1@TagLib@@UEAAXI@Z
?setYear@Tag@ID3v2@TagLib@@UEAAXI@Z
?setYear@Tag@Info@RIFF@TagLib@@UEAAXI@Z
?setYear@Tag@MP4@TagLib@@UEAAXI@Z
?setYear@Tag@Mod@TagLib@@UEAAXI@Z
?setYear@XiphComment@Ogg@TagLib@@UEAAXI@Z
?signature@Properties@FLAC@TagLib@@QEBA?AVByteVector@3@XZ
?size@?$List@VByteVector@TagLib@@@TagLib@@QEBAIXZ
?size@?$List@VString@TagLib@@@TagLib@@QEBAIXZ
?size@?$Map@VString@TagLib@@VStringList@2@@TagLib@@QEBAIXZ
?size@ByteVector@TagLib@@QEBAIXZ
?size@ExtendedHeader@ID3v2@TagLib@@QEBAIXZ
?size@Footer@APE@TagLib@@SAIXZ
?size@Footer@ID3v2@TagLib@@SAIXZ
?size@Frame@ID3v2@TagLib@@QEBAIXZ
?size@Header@Frame@ID3v2@TagLib@@SAII@Z
?size@Header@Frame@ID3v2@TagLib@@SAIXZ
?size@Header@ID3v2@TagLib@@SAIXZ
?size@Item@APE@TagLib@@QEBAHXZ
?size@Page@Ogg@TagLib@@QEBAHXZ
?size@PageHeader@Ogg@TagLib@@QEBAHXZ
?size@String@TagLib@@QEBAIXZ
?sortedInsert@?$List@VByteVector@TagLib@@@TagLib@@QEAAAEAV12@AEBVByteVector@2@_N@Z
?sortedInsert@?$List@VString@TagLib@@@TagLib@@QEAAAEAV12@AEBVString@2@_N@Z
?special@Properties@IT@TagLib@@QEBAGXZ
?speexVersion@Properties@Speex@Ogg@TagLib@@QEBAHXZ
?split@ByteVectorList@TagLib@@SA?AV12@AEBVByteVector@2@0H@Z
?split@ByteVectorList@TagLib@@SA?AV12@AEBVByteVector@2@0HH@Z
?split@String@TagLib@@QEBA?AVStringList@2@AEBV12@@Z
?split@StringList@TagLib@@SA?AV12@AEBVString@2@0@Z
?splitProperties@Frame@ID3v2@TagLib@@KAXAEBVPropertyMap@3@AEAV43@11@Z
?startOffset@ChapterFrame@ID3v2@TagLib@@QEBAIXZ
?startTime@ChapterFrame@ID3v2@TagLib@@QEBAIXZ
?startsWith@ByteVector@TagLib@@QEBA_NAEBV12@@Z
?startsWith@String@TagLib@@QEBA_NAEBV12@@Z
?stereo@Properties@IT@TagLib@@QEBA_NXZ
?stereo@Properties@S3M@TagLib@@QEBA_NXZ
?str@FileName@TagLib@@QEBAAEBV?$basic_string@DU?$char_traits@D@std@@V?$allocator@D@2@@std@@XZ
?stream@Attribute@ASF@TagLib@@QEBAHXZ
?streamInfoData@File@FLAC@Ogg@TagLib@@AEAA?AVByteVector@4@XZ
?streamInfoData@File@FLAC@TagLib@@QEAA?AVByteVector@3@XZ
?streamLength@File@FLAC@Ogg@TagLib@@QEAAJXZ
?streamLength@File@FLAC@TagLib@@QEAAJXZ
?streamSerialNumber@PageHeader@Ogg@TagLib@@QEBAIXZ
?strip@File@APE@TagLib@@QEAAXH@Z
?strip@File@FLAC@TagLib@@QEAAXH@Z
?strip@File@MP4@TagLib@@QEAA_NH@Z
?strip@File@MPC@TagLib@@QEAAXH@Z
?strip@File@MPEG@TagLib@@QEAA_NH@Z
?strip@File@MPEG@TagLib@@QEAA_NH_N@Z
?strip@File@TrueAudio@TagLib@@QEAAXH@Z
?strip@File@WAV@RIFF@TagLib@@QEAAXW4TagTypes@1234@@Z
?strip@File@WavPack@TagLib@@QEAAXH@Z
?strip@Tag@MP4@TagLib@@QEAA_NXZ
?stripWhiteSpace@String@TagLib@@QEBA?AV12@XZ
?substr@String@TagLib@@QEBA?AV12@II@Z
?swap@?$List@VByteVector@TagLib@@@TagLib@@QEAAXAEAV12@@Z
?swap@?$List@VString@TagLib@@@TagLib@@QEAAXAEAV12@@Z
?swap@?$Map@VString@TagLib@@VStringList@2@@TagLib@@QEAAXAEAV12@@Z
?swap@Attribute@ASF@TagLib@@QEAAXAEAV123@@Z
?swap@ByteVector@TagLib@@QEAAXAEAV12@@Z
?swap@CoverArt@MP4@TagLib@@QEAAXAEAV123@@Z
?swap@FileRef@TagLib@@QEAAXAEAV12@@Z
?swap@Item@APE@TagLib@@QEAAXAEAV123@@Z
?swap@Item@MP4@TagLib@@QEAAXAEAV123@@Z
?swap@Picture@ASF@TagLib@@QEAAXAEAV123@@Z
?swap@String@TagLib@@QEAAXAEAV12@@Z
?synchedEvents@EventTimingCodesFrame@ID3v2@TagLib@@QEBA?AV?$List@USynchedEvent@EventTimingCodesFrame@ID3v2@TagLib@@@3@XZ
?synchedText@SynchronizedLyricsFrame@ID3v2@TagLib@@QEBA?AV?$List@USynchedText@SynchronizedLyricsFrame@ID3v2@TagLib@@@3@XZ
?tag@File@AIFF@RIFF@TagLib@@UEBAPEAVTag@ID3v2@4@XZ
?tag@File@APE@TagLib@@UEBAPEAVTag@3@XZ
?tag@File@ASF@TagLib@@UEBAPEAVTag@23@XZ
?tag@File@FLAC@Ogg@TagLib@@UEBAPEAVXiphComment@34@XZ
?tag@File@FLAC@TagLib@@UEBAPEAVTag@3@XZ
?tag@File@IT@TagLib@@UEBAPEAVTag@Mod@3@XZ
?tag@File@MP4@TagLib@@UEBAPEAVTag@23@XZ
?tag@File@MPC@TagLib@@UEBAPEAVTag@3@XZ
?tag@File@MPEG@TagLib@@UEBAPEAVTag@3@XZ
?tag@File@Mod@TagLib@@UEBAPEAVTag@23@XZ
?tag@File@Opus@Ogg@TagLib@@UEBAPEAVXiphComment@34@XZ
?tag@File@S3M@TagLib@@UEBAPEAVTag@Mod@3@XZ
?tag@File@Speex@Ogg@TagLib@@UEBAPEAVXiphComment@34@XZ
?tag@File@TrueAudio@TagLib@@UEBAPEAVTag@3@XZ
?tag@File@Vorbis@TagLib@@UEBAPEAVXiphComment@Ogg@3@XZ
?tag@File@WAV@RIFF@TagLib@@UEBAPEAVTag@ID3v2@4@XZ
?tag@File@WavPack@TagLib@@UEBAPEAVTag@3@XZ
?tag@File@XM@TagLib@@UEBAPEAVTag@Mod@3@XZ
?tag@FileRef@TagLib@@QEBAPEAVTag@2@XZ
?tagAlterPreservation@Header@Frame@ID3v2@TagLib@@QEBA_NXZ
?tagSize@Footer@APE@TagLib@@QEBAIXZ
?tagSize@Header@ID3v2@TagLib@@QEBAIXZ
?tell@ByteVectorStream@TagLib@@UEBAJXZ
?tell@File@TagLib@@QEBAJXZ
?tell@FileStream@TagLib@@UEBAJXZ
?tempo@Properties@IT@TagLib@@QEBAEXZ
?tempo@Properties@S3M@TagLib@@QEBAEXZ
?tempo@Properties@XM@TagLib@@QEBAGXZ
?text@CommentsFrame@ID3v2@TagLib@@QEBA?AVString@3@XZ
?text@UnsynchronizedLyricsFrame@ID3v2@TagLib@@QEBA?AVString@3@XZ
?textDelimiter@Frame@ID3v2@TagLib@@SA?AVByteVector@3@W4Type@String@3@@Z
?textEncoding@AttachedPictureFrame@ID3v2@TagLib@@QEBA?AW4Type@String@3@XZ
?textEncoding@CommentsFrame@ID3v2@TagLib@@QEBA?AW4Type@String@3@XZ
?textEncoding@GeneralEncapsulatedObjectFrame@ID3v2@TagLib@@QEBA?AW4Type@String@3@XZ
?textEncoding@OwnershipFrame@ID3v2@TagLib@@QEBA?AW4Type@String@3@XZ
?textEncoding@SynchronizedLyricsFrame@ID3v2@TagLib@@QEBA?AW4Type@String@3@XZ
?textEncoding@TextIdentificationFrame@ID3v2@TagLib@@QEBA?AW4Type@String@3@XZ
?textEncoding@UnsynchronizedLyricsFrame@ID3v2@TagLib@@QEBA?AW4Type@String@3@XZ
?textEncoding@UserUrlLinkFrame@ID3v2@TagLib@@QEBA?AW4Type@String@3@XZ
?timestampFormat@EventTimingCodesFrame@ID3v2@TagLib@@QEBA?AW4TimestampFormat@123@XZ
?timestampFormat@SynchronizedLyricsFrame@ID3v2@TagLib@@QEBA?AW4TimestampFormat@123@XZ
?title@Tag@APE@TagLib@@UEBA?AVString@3@XZ
?title@Tag@ASF@TagLib@@UEBA?AVString@3@XZ
?title@Tag@ID3v1@TagLib@@UEBA?AVString@3@XZ
?title@Tag@ID3v2@TagLib@@UEBA?AVString@3@XZ
?title@Tag@Info@RIFF@TagLib@@UEBA?AVString@4@XZ
?title@Tag@MP4@TagLib@@UEBA?AVString@3@XZ
?title@Tag@Mod@TagLib@@UEBA?AVString@3@XZ
?title@XiphComment@Ogg@TagLib@@UEBA?AVString@3@XZ
?to8Bit@String@TagLib@@QEBA?AV?$basic_string@DU?$char_traits@D@std@@V?$allocator@D@2@@std@@_N@Z
?toBase64@ByteVector@TagLib@@QEBA?AV12@XZ
?toBool@Attribute@ASF@TagLib@@QEBAGXZ
?toBool@Item@MP4@TagLib@@QEBA_NXZ
?toByte@Item@MP4@TagLib@@QEBAEXZ
?toByteVector@Attribute@ASF@TagLib@@QEBA?AVByteVector@3@XZ
?toByteVector@ByteVectorList@TagLib@@QEBA?AVByteVector@2@AEBV32@@Z
?toByteVectorList@Item@MP4@TagLib@@QEBA?AVByteVectorList@3@XZ
?toCString@String@TagLib@@QEBAPEBD_N@Z
?toCWString@String@TagLib@@QEBAPEB_WXZ
?toCoverArtList@Item@MP4@TagLib@@QEBA?AV?$List@VCoverArt@MP4@TagLib@@@3@XZ
?toFloat32BE@ByteVector@TagLib@@QEBAM_K@Z
?toFloat32LE@ByteVector@TagLib@@QEBAM_K@Z
?toFloat64BE@ByteVector@TagLib@@QEBAN_K@Z
?toFloat64LE@ByteVector@TagLib@@QEBAN_K@Z
?toFloat80BE@ByteVector@TagLib@@QEBAO_K@Z
?toFloat80LE@ByteVector@TagLib@@QEBAO_K@Z
?toHex@ByteVector@TagLib@@QEBA?AV12@XZ
?toInt@Item@MP4@TagLib@@QEBAHXZ
?toInt@String@TagLib@@QEBAHPEA_N@Z
?toInt@String@TagLib@@QEBAHXZ
?toIntPair@Item@MP4@TagLib@@QEBA?AUIntPair@123@XZ
?toLongLong@ByteVector@TagLib@@QEBA_JI_N@Z
?toLongLong@ByteVector@TagLib@@QEBA_J_N@Z
?toLongLong@Item@MP4@TagLib@@QEBA_JXZ
?toPicture@Attribute@ASF@TagLib@@QEBA?AVPicture@23@XZ
?toShort@ByteVector@TagLib@@QEBAFI_N@Z
?toShort@ByteVector@TagLib@@QEBAF_N@Z
?toString@AttachedPictureFrame@ID3v2@TagLib@@UEBA?AVString@3@XZ
?toString@Attribute@ASF@TagLib@@QEBA?AVString@3@XZ
?toString@ChapterFrame@ID3v2@TagLib@@UEBA?AVString@3@XZ
?toString@CommentsFrame@ID3v2@TagLib@@UEBA?AVString@3@XZ
?toString@EventTimingCodesFrame@ID3v2@TagLib@@UEBA?AVString@3@XZ
?toString@FileName@TagLib@@QEBA?AVString@2@XZ
?toString@GeneralEncapsulatedObjectFrame@ID3v2@TagLib@@UEBA?AVString@3@XZ
?toString@Item@APE@TagLib@@QEBA?AVString@3@XZ
?toString@OwnershipFrame@ID3v2@TagLib@@UEBA?AVString@3@XZ
?toString@PodcastFrame@ID3v2@TagLib@@UEBA?AVString@3@XZ
?toString@PopularimeterFrame@ID3v2@TagLib@@UEBA?AVString@3@XZ
?toString@PrivateFrame@ID3v2@TagLib@@UEBA?AVString@3@XZ
?toString@PropertyMap@TagLib@@QEBA?AVString@2@XZ
?toString@RelativeVolumeFrame@ID3v2@TagLib@@UEBA?AVString@3@XZ
?toString@StringList@TagLib@@QEBA?AVString@2@AEBV32@@Z
?toString@SynchronizedLyricsFrame@ID3v2@TagLib@@UEBA?AVString@3@XZ
?toString@TableOfContentsFrame@ID3v2@TagLib@@UEBA?AVString@3@XZ
?toString@TextIdentificationFrame@ID3v2@TagLib@@UEBA?AVString@3@XZ
?toString@UniqueFileIdentifierFrame@ID3v2@TagLib@@UEBA?AVString@3@XZ
?toString@UnknownFrame@ID3v2@TagLib@@UEBA?AVString@3@XZ
?toString@UnsynchronizedLyricsFrame@ID3v2@TagLib@@UEBA?AVString@3@XZ
?toString@UrlLinkFrame@ID3v2@TagLib@@UEBA?AVString@3@XZ
?toString@UserTextIdentificationFrame@ID3v2@TagLib@@UEBA?AVString@3@XZ
?toString@UserUrlLinkFrame@ID3v2@TagLib@@UEBA?AVString@3@XZ
?toStringList@Item@APE@TagLib@@QEBA?AVStringList@3@XZ
?toStringList@Item@MP4@TagLib@@QEBA?AVStringList@3@XZ
?toUInt@Attribute@ASF@TagLib@@QEBAIXZ
?toUInt@ByteVector@TagLib@@QEBAIII_N@Z
?toUInt@ByteVector@TagLib@@QEBAII_N@Z
?toUInt@ByteVector@TagLib@@QEBAI_N@Z
?toUInt@Item@MP4@TagLib@@QEBAIXZ
?toUInt@SynchData@ID3v2@TagLib@@YAIAEBVByteVector@3@@Z
?toULongLong@Attribute@ASF@TagLib@@QEBA_KXZ
?toUShort@Attribute@ASF@TagLib@@QEBAGXZ
?toUShort@ByteVector@TagLib@@QEBAGI_N@Z
?toUShort@ByteVector@TagLib@@QEBAG_N@Z
?toWString@String@TagLib@@QEBA?AV?$basic_string@_WU?$char_traits@_W@std@@V?$allocator@_W@2@@std@@XZ
?totalFrames@Properties@MPC@TagLib@@QEBAIXZ
?totalFrames@XingHeader@MPEG@TagLib@@QEBAIXZ
?totalSize@XingHeader@MPEG@TagLib@@QEBAIXZ
?track@Tag@APE@TagLib@@UEBAIXZ
?track@Tag@ASF@TagLib@@UEBAIXZ
?track@Tag@ID3v1@TagLib@@UEBAIXZ
?track@Tag@ID3v2@TagLib@@UEBAIXZ
?track@Tag@Info@RIFF@TagLib@@UEBAIXZ
?track@Tag@MP4@TagLib@@UEBAIXZ
?track@Tag@Mod@TagLib@@UEBAIXZ
?track@XiphComment@Ogg@TagLib@@UEBAIXZ
?trackGain@Properties@MPC@TagLib@@QEBAHXZ
?trackPeak@Properties@MPC@TagLib@@QEBAHXZ
?trackerName@Tag@Mod@TagLib@@QEBA?AVString@3@XZ
?trackerVersion@Properties@S3M@TagLib@@QEBAGXZ
?truncate@ByteVectorStream@TagLib@@UEAAXJ@Z
?truncate@File@TagLib@@IEAAXJ@Z
?truncate@FileStream@TagLib@@UEAAXJ@Z
?ttaVersion@Properties@TrueAudio@TagLib@@QEBAHXZ
?txxxToKey@Frame@ID3v2@TagLib@@KA?AVString@3@AEBV43@@Z
?type@AttachedPictureFrame@ID3v2@TagLib@@QEBA?AW4Type@123@XZ
?type@Attribute@ASF@TagLib@@QEBA?AW4AttributeTypes@123@XZ
?type@Item@APE@TagLib@@QEBA?AW4ItemTypes@123@XZ
?type@Picture@ASF@TagLib@@QEBA?AW4Type@123@XZ
?type@Picture@FLAC@TagLib@@QEBA?AW4Type@123@XZ
?type@SynchronizedLyricsFrame@ID3v2@TagLib@@QEBA?AW4Type@123@XZ
?type@XingHeader@MPEG@TagLib@@QEBA?AW4HeaderType@123@XZ
?unsupportedData@PropertyMap@TagLib@@QEAAAEAVStringList@2@XZ
?unsupportedData@PropertyMap@TagLib@@QEBAAEBVStringList@2@XZ
?unsycronisation@Header@Frame@ID3v2@TagLib@@QEBA_NXZ
?unsynchronisation@Header@Frame@ID3v2@TagLib@@QEBA_NXZ
?unsynchronisation@Header@ID3v2@TagLib@@QEBA_NXZ
?updateFrame@FrameFactory@ID3v2@TagLib@@MEBA_NPEAVHeader@Frame@23@@Z
?updateGlobalSize@File@RIFF@TagLib@@AEAAXXZ
?updateOffsets@Tag@MP4@TagLib@@AEAAXJJ@Z
?updateParents@Tag@MP4@TagLib@@AEAAXAEBV?$List@PEAVAtom@MP4@TagLib@@@3@JH@Z
?upper@String@TagLib@@QEBA?AV12@XZ
?url@UrlLinkFrame@ID3v2@TagLib@@UEBA?AVString@3@XZ
?urlPrefix@Frame@ID3v2@TagLib@@2VString@3@B DATA
?value@?$Map@VString@TagLib@@VStringList@2@@TagLib@@QEBA?AVStringList@2@AEBVString@2@AEBV32@@Z
?value@Item@APE@TagLib@@QEBA?AVByteVector@3@XZ
?value@PropertyMap@TagLib@@QEBA?AVStringList@2@AEBVString@2@AEBV32@@Z
?values@Item@APE@TagLib@@QEBA?AVStringList@3@XZ
?vendorID@XiphComment@Ogg@TagLib@@QEBA?AVString@3@XZ
?version@Footer@APE@TagLib@@QEBAIXZ
?version@Header@Frame@ID3v2@TagLib@@QEBAIXZ
?version@Header@MPEG@TagLib@@QEBA?AW4Version@123@XZ
?version@Properties@APE@TagLib@@QEBAHXZ
?version@Properties@IT@TagLib@@QEBAGXZ
?version@Properties@MPEG@TagLib@@QEBA?AW4Version@Header@23@XZ
?version@Properties@WavPack@TagLib@@QEBAHXZ
?version@Properties@XM@TagLib@@QEBAGXZ
?volumeAdjustment@RelativeVolumeFrame@ID3v2@TagLib@@QEBAMW4ChannelType@123@@Z
?volumeAdjustment@RelativeVolumeFrame@ID3v2@TagLib@@QEBAMXZ
?volumeAdjustmentIndex@RelativeVolumeFrame@ID3v2@TagLib@@QEBAFW4ChannelType@123@@Z
?volumeAdjustmentIndex@RelativeVolumeFrame@ID3v2@TagLib@@QEBAFXZ
?vorbisVersion@Properties@Vorbis@TagLib@@QEBAHXZ
?width@Picture@FLAC@TagLib@@QEBAHXZ
?writeBlock@ByteVectorStream@TagLib@@UEAAXAEBVByteVector@2@@Z
?writeBlock@File@TagLib@@QEAAXAEBVByteVector@2@@Z
?writeBlock@FileStream@TagLib@@UEAAXAEBVByteVector@2@@Z
?writeByte@FileBase@Mod@TagLib@@IEAAXE@Z
?writeChunk@File@RIFF@TagLib@@AEAAXAEBVByteVector@3@0KK@Z
?writePacket@File@Ogg@TagLib@@AEAAXIAEBVByteVector@3@@Z
?writeString@FileBase@Mod@TagLib@@IEAAXAEBVString@3@KD@Z
?writeU16B@FileBase@Mod@TagLib@@IEAAXG@Z
?writeU16L@FileBase@Mod@TagLib@@IEAAXG@Z
?writeU32B@FileBase@Mod@TagLib@@IEAAXK@Z
?writeU32L@FileBase@Mod@TagLib@@IEAAXK@Z
?wstr@FileName@TagLib@@QEBAAEBV?$basic_string@_WU?$char_traits@_W@std@@V?$allocator@_W@2@@std@@XZ
?xingHeader@Properties@MPEG@TagLib@@QEBAPEBVXingHeader@23@XZ
?xingHeaderOffset@XingHeader@MPEG@TagLib@@SAHW4Version@Header@23@W4ChannelMode@523@@Z
?xiphComment@File@FLAC@TagLib@@QEAAPEAVXiphComment@Ogg@3@_N@Z
?xiphCommentData@File@FLAC@Ogg@TagLib@@AEAA?AVByteVector@4@XZ
?year@Tag@APE@TagLib@@UEBAIXZ
?year@Tag@ASF@TagLib@@UEBAIXZ
?year@Tag@ID3v1@TagLib@@UEBAIXZ
?year@Tag@ID3v2@TagLib@@UEBAIXZ
?year@Tag@Info@RIFF@TagLib@@UEBAIXZ
?year@Tag@MP4@TagLib@@UEBAIXZ
?year@Tag@Mod@TagLib@@UEBAIXZ
?year@XiphComment@Ogg@TagLib@@UEBAIXZ
